---
triple:          'arm64-apple-darwin'
binary-path:     '/Users/waltermink/Library/CloudStorage/OneDrive-TheUniversityofAlabama/Sophomore Year/Spring/CS 201/Code Projects/Phase 3/Phase3Main'
relocations:
  - { offsetInCU: 0x2DC1, offset: 0x2DC1, size: 0x8, addend: 0x0, symName: __ZNSt3__124__put_character_sequenceB7v160006IcNS_11char_traitsIcEEEERNS_13basic_ostreamIT_T0_EES7_PKS4_m, symObjAddr: 0xC98, symBinAddr: 0x100004970, symSize: 0x1F4 }
  - { offsetInCU: 0x5948, offset: 0x5948, size: 0x8, addend: 0x0, symName: __ZNSt3__1lsB7v160006INS_11char_traitsIcEEEERNS_13basic_ostreamIcT_EES6_PKc, symObjAddr: 0x5D0, symBinAddr: 0x1000042A8, symSize: 0x48 }
  - { offsetInCU: 0x598E, offset: 0x598E, size: 0x8, addend: 0x0, symName: __ZNSt3__14endlB7v160006IcNS_11char_traitsIcEEEERNS_13basic_ostreamIT_T0_EES7_, symObjAddr: 0x644, symBinAddr: 0x10000431C, symSize: 0x58 }
  - { offsetInCU: 0x59CE, offset: 0x59CE, size: 0x8, addend: 0x0, symName: __ZNSt3__1lsB7v160006INS_11char_traitsIcEEEERNS_13basic_ostreamIcT_EES6_c, symObjAddr: 0x69C, symBinAddr: 0x100004374, symSize: 0x34 }
  - { offsetInCU: 0x5A14, offset: 0x5A14, size: 0x8, addend: 0x0, symName: __ZNSt3__116__pad_and_outputB7v160006IcNS_11char_traitsIcEEEENS_19ostreambuf_iteratorIT_T0_EES6_PKS4_S8_S8_RNS_8ios_baseES4_, symObjAddr: 0xEF0, symBinAddr: 0x100004BC8, symSize: 0x248 }
  - { offsetInCU: 0x5AE3, offset: 0x5AE3, size: 0x8, addend: 0x0, symName: __ZNSt3__119__debug_db_insert_cB7v160006INS_12basic_stringIcNS_11char_traitsIcEENS_9allocatorIcEEEEEEvPT_, symObjAddr: 0x13B8, symBinAddr: 0x100005090, symSize: 0x10 }
  - { offsetInCU: 0x5B14, offset: 0x5B14, size: 0x8, addend: 0x0, symName: __ZNSt3__112__to_addressB7v160006IKcEEPT_S3_, symObjAddr: 0x1484, symBinAddr: 0x10000515C, symSize: 0x14 }
  - { offsetInCU: 0x5B49, offset: 0x5B49, size: 0x8, addend: 0x0, symName: __ZNSt3__130__libcpp_is_constant_evaluatedB7v160006Ev, symObjAddr: 0x15B0, symBinAddr: 0x100005288, symSize: 0xC }
  - { offsetInCU: 0x5B99, offset: 0x5B99, size: 0x8, addend: 0x0, symName: __ZNSt3__19use_facetB7v160006INS_5ctypeIcEEEERKT_RKNS_6localeE, symObjAddr: 0x1768, symBinAddr: 0x100005440, symSize: 0x2C }
  - { offsetInCU: 0x6068, offset: 0x6068, size: 0x8, addend: 0x0, symName: __ZNSt3__118__constexpr_strlenB7v160006EPKc, symObjAddr: 0x1800, symBinAddr: 0x1000054D8, symSize: 0x24 }
  - { offsetInCU: 0x6094, offset: 0x6094, size: 0x8, addend: 0x0, symName: __ZNSt3__14swapB7v160006IP8HeapNodeIcEEEvRT_S5_, symObjAddr: 0x2038, symBinAddr: 0x100005D10, symSize: 0x3C }
  - { offsetInCU: 0x60E5, offset: 0x60E5, size: 0x8, addend: 0x0, symName: __ZNSt3__122__make_exception_guardB7v160006INS_6vectorIP8HeapNodeIcENS_9allocatorIS4_EEE16__destroy_vectorEEENS_28__exception_guard_exceptionsIT_EESA_, symObjAddr: 0x2348, symBinAddr: 0x100006020, symSize: 0x40 }
  - { offsetInCU: 0x611A, offset: 0x611A, size: 0x8, addend: 0x0, symName: __ZNSt3__119__debug_db_insert_cB7v160006INS_6vectorIP8HeapNodeIcENS_9allocatorIS4_EEEEEEvPT_, symObjAddr: 0x23BC, symBinAddr: 0x100006094, symSize: 0x10 }
  - { offsetInCU: 0x614B, offset: 0x614B, size: 0x8, addend: 0x0, symName: __ZNSt3__119__allocate_at_leastB7v160006INS_9allocatorIP8HeapNodeIcEEEEENS_19__allocation_resultINS_16allocator_traitsIT_E7pointerEEERS8_m, symObjAddr: 0x2768, symBinAddr: 0x100006440, symSize: 0x40 }
  - { offsetInCU: 0x618E, offset: 0x618E, size: 0x8, addend: 0x0, symName: __ZNSt3__13minB7v160006ImEERKT_S3_S3_, symObjAddr: 0x28A4, symBinAddr: 0x10000657C, symSize: 0x2C }
  - { offsetInCU: 0x63D2, offset: 0x63D2, size: 0x8, addend: 0x0, symName: __ZNSt3__13minB7v160006ImNS_6__lessImmEEEERKT_S5_S5_T0_, symObjAddr: 0x2930, symBinAddr: 0x100006608, symSize: 0x54 }
  - { offsetInCU: 0x6467, offset: 0x6467, size: 0x8, addend: 0x0, symName: __ZNSt3__120__throw_length_errorB7v160006EPKc, symObjAddr: 0x2A0C, symBinAddr: 0x1000066E4, symSize: 0x64 }
  - { offsetInCU: 0x648F, offset: 0x648F, size: 0x8, addend: 0x0, symName: __ZNSt3__117__libcpp_allocateB7v160006Emm, symObjAddr: 0x2BA8, symBinAddr: 0x100006880, symSize: 0x28 }
  - { offsetInCU: 0x64CC, offset: 0x64CC, size: 0x8, addend: 0x0, symName: __ZNSt3__121__libcpp_operator_newB7v160006IJmEEEPvDpT_, symObjAddr: 0x2BD0, symBinAddr: 0x1000068A8, symSize: 0x24 }
  - { offsetInCU: 0x6505, offset: 0x6505, size: 0x8, addend: 0x0, symName: __ZNSt3__112__to_addressB7v160006IP8HeapNodeIcEEEPT_S5_, symObjAddr: 0x2CEC, symBinAddr: 0x1000069C4, symSize: 0x14 }
  - { offsetInCU: 0x653A, offset: 0x653A, size: 0x8, addend: 0x0, symName: __ZNSt3__118__debug_db_erase_cB7v160006INS_6vectorIP8HeapNodeIcENS_9allocatorIS4_EEEEEEvPT_, symObjAddr: 0x3024, symBinAddr: 0x100006CFC, symSize: 0x10 }
  - { offsetInCU: 0x656B, offset: 0x656B, size: 0x8, addend: 0x0, symName: __ZNSt3__119__libcpp_deallocateB7v160006EPvmm, symObjAddr: 0x3208, symBinAddr: 0x100006EE0, symSize: 0x30 }
  - { offsetInCU: 0x65B3, offset: 0x65B3, size: 0x8, addend: 0x0, symName: __ZNSt3__127__do_deallocate_handle_sizeB7v160006IJEEEvPvmDpT_, symObjAddr: 0x3238, symBinAddr: 0x100006F10, symSize: 0x28 }
  - { offsetInCU: 0x65F1, offset: 0x65F1, size: 0x8, addend: 0x0, symName: __ZNSt3__124__libcpp_operator_deleteB7v160006IJPvEEEvDpT_, symObjAddr: 0x3260, symBinAddr: 0x100006F38, symSize: 0x24 }
  - { offsetInCU: 0x6626, offset: 0x6626, size: 0x8, addend: 0x0, symName: __ZNSt3__13maxB7v160006IiEERKT_S3_S3_, symObjAddr: 0x38CC, symBinAddr: 0x1000075A4, symSize: 0x2C }
  - { offsetInCU: 0x6669, offset: 0x6669, size: 0x8, addend: 0x0, symName: __ZNSt3__13maxB7v160006IiNS_6__lessIiiEEEERKT_S5_S5_T0_, symObjAddr: 0x38F8, symBinAddr: 0x1000075D0, symSize: 0x54 }
  - { offsetInCU: 0x6933, offset: 0x6933, size: 0x8, addend: 0x0, symName: __ZSt28__throw_bad_array_new_lengthB7v160006v, symObjAddr: 0x2B74, symBinAddr: 0x10000684C, symSize: 0x34 }
  - { offsetInCU: 0x9460, offset: 0x9460, size: 0x8, addend: 0x0, symName: _main, symObjAddr: 0x0, symBinAddr: 0x100003CD8, symSize: 0x42C }
  - { offsetInCU: 0x95FD, offset: 0x95FD, size: 0x8, addend: 0x0, symName: __ZN5BHeapIcEC1Ev, symObjAddr: 0x42C, symBinAddr: 0x100004104, symSize: 0x2C }
  - { offsetInCU: 0x9627, offset: 0x9627, size: 0x8, addend: 0x0, symName: __ZN5BHeapIcE6insertEc, symObjAddr: 0x458, symBinAddr: 0x100004130, symSize: 0x178 }
  - { offsetInCU: 0x9669, offset: 0x9669, size: 0x8, addend: 0x0, symName: __ZNSt3__113basic_ostreamIcNS_11char_traitsIcEEElsB7v160006EPFRS3_S4_E, symObjAddr: 0x618, symBinAddr: 0x1000042F0, symSize: 0x2C }
  - { offsetInCU: 0x969D, offset: 0x969D, size: 0x8, addend: 0x0, symName: __ZN5BHeapIcE10extractMinEv, symObjAddr: 0x6D0, symBinAddr: 0x1000043A8, symSize: 0x174 }
  - { offsetInCU: 0x96DF, offset: 0x96DF, size: 0x8, addend: 0x0, symName: __ZN5BHeapIcE8printKeyEv, symObjAddr: 0x844, symBinAddr: 0x10000451C, symSize: 0xDC }
  - { offsetInCU: 0x9713, offset: 0x9713, size: 0x8, addend: 0x0, symName: __ZN5BHeapIcE5mergeERS0_, symObjAddr: 0x920, symBinAddr: 0x1000045F8, symSize: 0x198 }
  - { offsetInCU: 0x9763, offset: 0x9763, size: 0x8, addend: 0x0, symName: __ZN5BHeapIcEC2Ev, symObjAddr: 0xAB8, symBinAddr: 0x100004790, symSize: 0x20 }
  - { offsetInCU: 0x978D, offset: 0x978D, size: 0x8, addend: 0x0, symName: __ZN8HeapNodeIcEC1Ec, symObjAddr: 0xAD8, symBinAddr: 0x1000047B0, symSize: 0x34 }
  - { offsetInCU: 0x97C5, offset: 0x97C5, size: 0x8, addend: 0x0, symName: __ZN8HeapNodeIcE15setRightSiblingEPS0_, symObjAddr: 0xB0C, symBinAddr: 0x1000047E4, symSize: 0x48 }
  - { offsetInCU: 0x97F9, offset: 0x97F9, size: 0x8, addend: 0x0, symName: __ZN8HeapNodeIcE14setLeftSiblingEPS0_, symObjAddr: 0xB54, symBinAddr: 0x10000482C, symSize: 0x48 }
  - { offsetInCU: 0x982D, offset: 0x982D, size: 0x8, addend: 0x0, symName: __ZN8HeapNodeIcE14getLeftSiblingEv, symObjAddr: 0xB9C, symBinAddr: 0x100004874, symSize: 0x18 }
  - { offsetInCU: 0x9853, offset: 0x9853, size: 0x8, addend: 0x0, symName: __ZN8HeapNodeIcE6getKeyEv, symObjAddr: 0xBB4, symBinAddr: 0x10000488C, symSize: 0x18 }
  - { offsetInCU: 0x9879, offset: 0x9879, size: 0x8, addend: 0x0, symName: __ZN8HeapNodeIcEC2Ec, symObjAddr: 0xBCC, symBinAddr: 0x1000048A4, symSize: 0x48 }
  - { offsetInCU: 0x98B1, offset: 0x98B1, size: 0x8, addend: 0x0, symName: __ZN20CircularDynamicArrayIP8HeapNodeIcEEC1Ev, symObjAddr: 0xC14, symBinAddr: 0x1000048EC, symSize: 0x2C }
  - { offsetInCU: 0x98DB, offset: 0x98DB, size: 0x8, addend: 0x0, symName: __ZN20CircularDynamicArrayIP8HeapNodeIcEEC2Ev, symObjAddr: 0xC40, symBinAddr: 0x100004918, symSize: 0x58 }
  - { offsetInCU: 0x9905, offset: 0x9905, size: 0x8, addend: 0x0, symName: __ZNSt3__111char_traitsIcE6lengthEPKc, symObjAddr: 0xE8C, symBinAddr: 0x100004B64, symSize: 0x48 }
  - { offsetInCU: 0x9946, offset: 0x9946, size: 0x8, addend: 0x0, symName: __ZNKSt3__113basic_ostreamIcNS_11char_traitsIcEEE6sentrycvbB7v160006Ev, symObjAddr: 0xED4, symBinAddr: 0x100004BAC, symSize: 0x1C }
  - { offsetInCU: 0x996C, offset: 0x996C, size: 0x8, addend: 0x0, symName: __ZNSt3__119ostreambuf_iteratorIcNS_11char_traitsIcEEEC1B7v160006ERNS_13basic_ostreamIcS2_EE, symObjAddr: 0x1138, symBinAddr: 0x100004E10, symSize: 0x34 }
  - { offsetInCU: 0x99A4, offset: 0x99A4, size: 0x8, addend: 0x0, symName: __ZNKSt3__18ios_base5flagsB7v160006Ev, symObjAddr: 0x116C, symBinAddr: 0x100004E44, symSize: 0x18 }
  - { offsetInCU: 0x99CC, offset: 0x99CC, size: 0x8, addend: 0x0, symName: __ZNKSt3__19basic_iosIcNS_11char_traitsIcEEE4fillB7v160006Ev, symObjAddr: 0x1184, symBinAddr: 0x100004E5C, symSize: 0x64 }
  - { offsetInCU: 0x99F4, offset: 0x99F4, size: 0x8, addend: 0x0, symName: __ZNKSt3__119ostreambuf_iteratorIcNS_11char_traitsIcEEE6failedB7v160006Ev, symObjAddr: 0x11E8, symBinAddr: 0x100004EC0, symSize: 0x24 }
  - { offsetInCU: 0x9A1A, offset: 0x9A1A, size: 0x8, addend: 0x0, symName: __ZNSt3__19basic_iosIcNS_11char_traitsIcEEE8setstateB7v160006Ej, symObjAddr: 0x120C, symBinAddr: 0x100004EE4, symSize: 0x2C }
  - { offsetInCU: 0x9A4F, offset: 0x9A4F, size: 0x8, addend: 0x0, symName: __ZNKSt3__18ios_base5widthB7v160006Ev, symObjAddr: 0x1244, symBinAddr: 0x100004F1C, symSize: 0x18 }
  - { offsetInCU: 0x9A77, offset: 0x9A77, size: 0x8, addend: 0x0, symName: __ZNSt3__115basic_streambufIcNS_11char_traitsIcEEE5sputnB7v160006EPKcl, symObjAddr: 0x125C, symBinAddr: 0x100004F34, symSize: 0x3C }
  - { offsetInCU: 0x9AB9, offset: 0x9AB9, size: 0x8, addend: 0x0, symName: __ZNSt3__112basic_stringIcNS_11char_traitsIcEENS_9allocatorIcEEEC1B7v160006Emc, symObjAddr: 0x1298, symBinAddr: 0x100004F70, symSize: 0x3C }
  - { offsetInCU: 0x9B01, offset: 0x9B01, size: 0x8, addend: 0x0, symName: __ZNKSt3__112basic_stringIcNS_11char_traitsIcEENS_9allocatorIcEEE4dataB7v160006Ev, symObjAddr: 0x12D4, symBinAddr: 0x100004FAC, symSize: 0x28 }
  - { offsetInCU: 0x9B27, offset: 0x9B27, size: 0x8, addend: 0x0, symName: __ZNSt3__18ios_base5widthB7v160006El, symObjAddr: 0x12FC, symBinAddr: 0x100004FD4, symSize: 0x2C }
  - { offsetInCU: 0x9B6D, offset: 0x9B6D, size: 0x8, addend: 0x0, symName: __ZNSt3__112basic_stringIcNS_11char_traitsIcEENS_9allocatorIcEEEC2B7v160006Emc, symObjAddr: 0x1328, symBinAddr: 0x100005000, symSize: 0x54 }
  - { offsetInCU: 0x9BBA, offset: 0x9BBA, size: 0x8, addend: 0x0, symName: __ZNSt3__117__compressed_pairINS_12basic_stringIcNS_11char_traitsIcEENS_9allocatorIcEEE5__repES5_EC1B7v160006INS_18__default_init_tagESA_EEOT_OT0_, symObjAddr: 0x137C, symBinAddr: 0x100005054, symSize: 0x3C }
  - { offsetInCU: 0x9C12, offset: 0x9C12, size: 0x8, addend: 0x0, symName: __ZNSt3__117__compressed_pairINS_12basic_stringIcNS_11char_traitsIcEENS_9allocatorIcEEE5__repES5_EC2B7v160006INS_18__default_init_tagESA_EEOT_OT0_, symObjAddr: 0x13C8, symBinAddr: 0x1000050A0, symSize: 0x3C }
  - { offsetInCU: 0x9C6A, offset: 0x9C6A, size: 0x8, addend: 0x0, symName: __ZNSt3__122__compressed_pair_elemINS_12basic_stringIcNS_11char_traitsIcEENS_9allocatorIcEEE5__repELi0ELb0EEC2B7v160006ENS_18__default_init_tagE, symObjAddr: 0x1404, symBinAddr: 0x1000050DC, symSize: 0x14 }
  - { offsetInCU: 0x9C9F, offset: 0x9C9F, size: 0x8, addend: 0x0, symName: __ZNSt3__122__compressed_pair_elemINS_9allocatorIcEELi1ELb1EEC2B7v160006ENS_18__default_init_tagE, symObjAddr: 0x1418, symBinAddr: 0x1000050F0, symSize: 0x2C }
  - { offsetInCU: 0x9CD4, offset: 0x9CD4, size: 0x8, addend: 0x0, symName: __ZNSt3__19allocatorIcEC2B7v160006Ev, symObjAddr: 0x1444, symBinAddr: 0x10000511C, symSize: 0x2C }
  - { offsetInCU: 0x9CFE, offset: 0x9CFE, size: 0x8, addend: 0x0, symName: __ZNSt3__116__non_trivial_ifILb1ENS_9allocatorIcEEEC2B7v160006Ev, symObjAddr: 0x1470, symBinAddr: 0x100005148, symSize: 0x14 }
  - { offsetInCU: 0x9D28, offset: 0x9D28, size: 0x8, addend: 0x0, symName: __ZNKSt3__112basic_stringIcNS_11char_traitsIcEENS_9allocatorIcEEE13__get_pointerB7v160006Ev, symObjAddr: 0x1498, symBinAddr: 0x100005170, symSize: 0x54 }
  - { offsetInCU: 0x9D4E, offset: 0x9D4E, size: 0x8, addend: 0x0, symName: __ZNKSt3__112basic_stringIcNS_11char_traitsIcEENS_9allocatorIcEEE9__is_longB7v160006Ev, symObjAddr: 0x14EC, symBinAddr: 0x1000051C4, symSize: 0x74 }
  - { offsetInCU: 0x9D74, offset: 0x9D74, size: 0x8, addend: 0x0, symName: __ZNKSt3__112basic_stringIcNS_11char_traitsIcEENS_9allocatorIcEEE18__get_long_pointerB7v160006Ev, symObjAddr: 0x1560, symBinAddr: 0x100005238, symSize: 0x28 }
  - { offsetInCU: 0x9D9A, offset: 0x9D9A, size: 0x8, addend: 0x0, symName: __ZNKSt3__112basic_stringIcNS_11char_traitsIcEENS_9allocatorIcEEE19__get_short_pointerB7v160006Ev, symObjAddr: 0x1588, symBinAddr: 0x100005260, symSize: 0x28 }
  - { offsetInCU: 0x9DC0, offset: 0x9DC0, size: 0x8, addend: 0x0, symName: __ZNKSt3__117__compressed_pairINS_12basic_stringIcNS_11char_traitsIcEENS_9allocatorIcEEE5__repES5_E5firstB7v160006Ev, symObjAddr: 0x15BC, symBinAddr: 0x100005294, symSize: 0x24 }
  - { offsetInCU: 0x9DE6, offset: 0x9DE6, size: 0x8, addend: 0x0, symName: __ZNKSt3__122__compressed_pair_elemINS_12basic_stringIcNS_11char_traitsIcEENS_9allocatorIcEEE5__repELi0ELb0EE5__getB7v160006Ev, symObjAddr: 0x15E0, symBinAddr: 0x1000052B8, symSize: 0x14 }
  - { offsetInCU: 0x9E0C, offset: 0x9E0C, size: 0x8, addend: 0x0, symName: __ZNSt3__114pointer_traitsIPKcE10pointer_toB7v160006ERS1_, symObjAddr: 0x15F4, symBinAddr: 0x1000052CC, symSize: 0x14 }
  - { offsetInCU: 0x9E2F, offset: 0x9E2F, size: 0x8, addend: 0x0, symName: __ZNSt3__119ostreambuf_iteratorIcNS_11char_traitsIcEEEC2B7v160006ERNS_13basic_ostreamIcS2_EE, symObjAddr: 0x1608, symBinAddr: 0x1000052E0, symSize: 0x68 }
  - { offsetInCU: 0x9E67, offset: 0x9E67, size: 0x8, addend: 0x0, symName: __ZNKSt3__19basic_iosIcNS_11char_traitsIcEEE5rdbufB7v160006Ev, symObjAddr: 0x1670, symBinAddr: 0x100005348, symSize: 0x24 }
  - { offsetInCU: 0x9E8F, offset: 0x9E8F, size: 0x8, addend: 0x0, symName: __ZNKSt3__18ios_base5rdbufB7v160006Ev, symObjAddr: 0x1694, symBinAddr: 0x10000536C, symSize: 0x18 }
  - { offsetInCU: 0x9EB5, offset: 0x9EB5, size: 0x8, addend: 0x0, symName: __ZNSt3__111char_traitsIcE11eq_int_typeEii, symObjAddr: 0x16AC, symBinAddr: 0x100005384, symSize: 0x28 }
  - { offsetInCU: 0x9EE6, offset: 0x9EE6, size: 0x8, addend: 0x0, symName: __ZNSt3__111char_traitsIcE3eofEv, symObjAddr: 0x16D4, symBinAddr: 0x1000053AC, symSize: 0x8 }
  - { offsetInCU: 0x9EFA, offset: 0x9EFA, size: 0x8, addend: 0x0, symName: __ZNKSt3__19basic_iosIcNS_11char_traitsIcEEE5widenB7v160006Ec, symObjAddr: 0x16DC, symBinAddr: 0x1000053B4, symSize: 0x8C }
  - { offsetInCU: 0x9F68, offset: 0x9F68, size: 0x8, addend: 0x0, symName: __ZNKSt3__15ctypeIcE5widenB7v160006Ec, symObjAddr: 0x1794, symBinAddr: 0x10000546C, symSize: 0x38 }
  - { offsetInCU: 0x9F9D, offset: 0x9F9D, size: 0x8, addend: 0x0, symName: __ZNSt3__18ios_base8setstateB7v160006Ej, symObjAddr: 0x17CC, symBinAddr: 0x1000054A4, symSize: 0x34 }
  - { offsetInCU: 0x9FD4, offset: 0x9FD4, size: 0x8, addend: 0x0, symName: __ZN5BHeapIcE7peekKeyEv, symObjAddr: 0x1824, symBinAddr: 0x1000054FC, symSize: 0xA0 }
  - { offsetInCU: 0x9FFA, offset: 0x9FFA, size: 0x8, addend: 0x0, symName: __ZN8HeapNodeIcE15shiftChildrenUpEv, symObjAddr: 0x18C4, symBinAddr: 0x10000559C, symSize: 0xE0 }
  - { offsetInCU: 0xA020, offset: 0xA020, size: 0x8, addend: 0x0, symName: __ZN8HeapNodeIcE15getRightSiblingEv, symObjAddr: 0x19A4, symBinAddr: 0x10000567C, symSize: 0x18 }
  - { offsetInCU: 0xA046, offset: 0xA046, size: 0x8, addend: 0x0, symName: __ZN8HeapNodeIcE9getDegreeEv, symObjAddr: 0x19BC, symBinAddr: 0x100005694, symSize: 0x18 }
  - { offsetInCU: 0xA06C, offset: 0xA06C, size: 0x8, addend: 0x0, symName: __ZN8HeapNodeIcE10disconnectEv, symObjAddr: 0x19D4, symBinAddr: 0x1000056AC, symSize: 0x78 }
  - { offsetInCU: 0xA092, offset: 0xA092, size: 0x8, addend: 0x0, symName: __ZN5BHeapIcE11consolidateEv, symObjAddr: 0x1A4C, symBinAddr: 0x100005724, symSize: 0x3D4 }
  - { offsetInCU: 0xA15F, offset: 0xA15F, size: 0x8, addend: 0x0, symName: __ZN8HeapNodeIcED1Ev, symObjAddr: 0x1E20, symBinAddr: 0x100005AF8, symSize: 0x2C }
  - { offsetInCU: 0xA189, offset: 0xA189, size: 0x8, addend: 0x0, symName: __ZN20CircularDynamicArrayIP8HeapNodeIcEE13getFrontValueEv, symObjAddr: 0x1E4C, symBinAddr: 0x100005B24, symSize: 0x20 }
  - { offsetInCU: 0xA1AF, offset: 0xA1AF, size: 0x8, addend: 0x0, symName: __ZN20CircularDynamicArrayIP8HeapNodeIcEE11getEndValueEv, symObjAddr: 0x1E6C, symBinAddr: 0x100005B44, symSize: 0xBC }
  - { offsetInCU: 0xA1D5, offset: 0xA1D5, size: 0x8, addend: 0x0, symName: __ZNSt12out_of_rangeC1B7v160006EPKc, symObjAddr: 0x1F28, symBinAddr: 0x100005C00, symSize: 0x34 }
  - { offsetInCU: 0xA20D, offset: 0xA20D, size: 0x8, addend: 0x0, symName: __ZNSt12out_of_rangeC2B7v160006EPKc, symObjAddr: 0x1F5C, symBinAddr: 0x100005C34, symSize: 0x4C }
  - { offsetInCU: 0xA244, offset: 0xA244, size: 0x8, addend: 0x0, symName: __Z4log2B7v160006IiENSt3__19enable_ifIXsr3std11is_integralIT_EE5valueEdE4typeES2_, symObjAddr: 0x1FA8, symBinAddr: 0x100005C80, symSize: 0x30 }
  - { offsetInCU: 0xA27C, offset: 0xA27C, size: 0x8, addend: 0x0, symName: __ZNSt3__16vectorIP8HeapNodeIcENS_9allocatorIS3_EEEC1EmRKS3_, symObjAddr: 0x1FD8, symBinAddr: 0x100005CB0, symSize: 0x3C }
  - { offsetInCU: 0xA2C6, offset: 0xA2C6, size: 0x8, addend: 0x0, symName: __ZNSt3__16vectorIP8HeapNodeIcENS_9allocatorIS3_EEEixB7v160006Em, symObjAddr: 0x2014, symBinAddr: 0x100005CEC, symSize: 0x24 }
  - { offsetInCU: 0xA2FD, offset: 0xA2FD, size: 0x8, addend: 0x0, symName: __ZN8HeapNodeIcE8addChildEPS0_, symObjAddr: 0x2074, symBinAddr: 0x100005D4C, symSize: 0x15C }
  - { offsetInCU: 0xA331, offset: 0xA331, size: 0x8, addend: 0x0, symName: __ZN8HeapNodeIcE9setDegreeEi, symObjAddr: 0x21D0, symBinAddr: 0x100005EA8, symSize: 0x20 }
  - { offsetInCU: 0xA365, offset: 0xA365, size: 0x8, addend: 0x0, symName: __ZNSt3__16vectorIP8HeapNodeIcENS_9allocatorIS3_EEED1B7v160006Ev, symObjAddr: 0x21F0, symBinAddr: 0x100005EC8, symSize: 0x2C }
  - { offsetInCU: 0xA38F, offset: 0xA38F, size: 0x8, addend: 0x0, symName: __ZNSt3__16vectorIP8HeapNodeIcENS_9allocatorIS3_EEEC2EmRKS3_, symObjAddr: 0x221C, symBinAddr: 0x100005EF4, symSize: 0xF0 }
  - { offsetInCU: 0xA3F3, offset: 0xA3F3, size: 0x8, addend: 0x0, symName: __ZNSt3__117__compressed_pairIPP8HeapNodeIcENS_9allocatorIS3_EEEC1B7v160006IDnNS_18__default_init_tagEEEOT_OT0_, symObjAddr: 0x230C, symBinAddr: 0x100005FE4, symSize: 0x3C }
  - { offsetInCU: 0xA44B, offset: 0xA44B, size: 0x8, addend: 0x0, symName: __ZNSt3__16vectorIP8HeapNodeIcENS_9allocatorIS3_EEE16__destroy_vectorC1ERS6_, symObjAddr: 0x2388, symBinAddr: 0x100006060, symSize: 0x34 }
  - { offsetInCU: 0xA484, offset: 0xA484, size: 0x8, addend: 0x0, symName: __ZNSt3__16vectorIP8HeapNodeIcENS_9allocatorIS3_EEE11__vallocateB7v160006Em, symObjAddr: 0x23CC, symBinAddr: 0x1000060A4, symSize: 0xAC }
  - { offsetInCU: 0xA4C8, offset: 0xA4C8, size: 0x8, addend: 0x0, symName: __ZNSt3__16vectorIP8HeapNodeIcENS_9allocatorIS3_EEE18__construct_at_endEmRKS3_, symObjAddr: 0x2478, symBinAddr: 0x100006150, symSize: 0xD8 }
  - { offsetInCU: 0xA54A, offset: 0xA54A, size: 0x8, addend: 0x0, symName: __ZNSt3__128__exception_guard_exceptionsINS_6vectorIP8HeapNodeIcENS_9allocatorIS4_EEE16__destroy_vectorEE10__completeB7v160006Ev, symObjAddr: 0x2550, symBinAddr: 0x100006228, symSize: 0x1C }
  - { offsetInCU: 0xA570, offset: 0xA570, size: 0x8, addend: 0x0, symName: __ZNSt3__128__exception_guard_exceptionsINS_6vectorIP8HeapNodeIcENS_9allocatorIS4_EEE16__destroy_vectorEED1B7v160006Ev, symObjAddr: 0x256C, symBinAddr: 0x100006244, symSize: 0x2C }
  - { offsetInCU: 0xA59A, offset: 0xA59A, size: 0x8, addend: 0x0, symName: __ZNSt3__117__compressed_pairIPP8HeapNodeIcENS_9allocatorIS3_EEEC2B7v160006IDnNS_18__default_init_tagEEEOT_OT0_, symObjAddr: 0x2598, symBinAddr: 0x100006270, symSize: 0x40 }
  - { offsetInCU: 0xA5F2, offset: 0xA5F2, size: 0x8, addend: 0x0, symName: __ZNSt3__122__compressed_pair_elemIPP8HeapNodeIcELi0ELb0EEC2B7v160006IDnvEEOT_, symObjAddr: 0x25D8, symBinAddr: 0x1000062B0, symSize: 0x1C }
  - { offsetInCU: 0xA634, offset: 0xA634, size: 0x8, addend: 0x0, symName: __ZNSt3__122__compressed_pair_elemINS_9allocatorIP8HeapNodeIcEEELi1ELb1EEC2B7v160006ENS_18__default_init_tagE, symObjAddr: 0x25F4, symBinAddr: 0x1000062CC, symSize: 0x2C }
  - { offsetInCU: 0xA669, offset: 0xA669, size: 0x8, addend: 0x0, symName: __ZNSt3__19allocatorIP8HeapNodeIcEEC2B7v160006Ev, symObjAddr: 0x2620, symBinAddr: 0x1000062F8, symSize: 0x2C }
  - { offsetInCU: 0xA693, offset: 0xA693, size: 0x8, addend: 0x0, symName: __ZNSt3__116__non_trivial_ifILb1ENS_9allocatorIP8HeapNodeIcEEEEC2B7v160006Ev, symObjAddr: 0x264C, symBinAddr: 0x100006324, symSize: 0x14 }
  - { offsetInCU: 0xA6BD, offset: 0xA6BD, size: 0x8, addend: 0x0, symName: __ZNSt3__128__exception_guard_exceptionsINS_6vectorIP8HeapNodeIcENS_9allocatorIS4_EEE16__destroy_vectorEEC1B7v160006ES8_, symObjAddr: 0x2660, symBinAddr: 0x100006338, symSize: 0x34 }
  - { offsetInCU: 0xA6F5, offset: 0xA6F5, size: 0x8, addend: 0x0, symName: __ZNSt3__128__exception_guard_exceptionsINS_6vectorIP8HeapNodeIcENS_9allocatorIS4_EEE16__destroy_vectorEEC2B7v160006ES8_, symObjAddr: 0x2694, symBinAddr: 0x10000636C, symSize: 0x24 }
  - { offsetInCU: 0xA72D, offset: 0xA72D, size: 0x8, addend: 0x0, symName: __ZNSt3__16vectorIP8HeapNodeIcENS_9allocatorIS3_EEE16__destroy_vectorC2ERS6_, symObjAddr: 0x26B8, symBinAddr: 0x100006390, symSize: 0x20 }
  - { offsetInCU: 0xA766, offset: 0xA766, size: 0x8, addend: 0x0, symName: __ZNKSt3__16vectorIP8HeapNodeIcENS_9allocatorIS3_EEE8max_sizeEv, symObjAddr: 0x26D8, symBinAddr: 0x1000063B0, symSize: 0x74 }
  - { offsetInCU: 0xA78E, offset: 0xA78E, size: 0x8, addend: 0x0, symName: __ZNKSt3__16vectorIP8HeapNodeIcENS_9allocatorIS3_EEE20__throw_length_errorB7v160006Ev, symObjAddr: 0x274C, symBinAddr: 0x100006424, symSize: 0x1C }
  - { offsetInCU: 0xA7B4, offset: 0xA7B4, size: 0x8, addend: 0x0, symName: __ZNSt3__16vectorIP8HeapNodeIcENS_9allocatorIS3_EEE7__allocB7v160006Ev, symObjAddr: 0x27A8, symBinAddr: 0x100006480, symSize: 0x28 }
  - { offsetInCU: 0xA7DA, offset: 0xA7DA, size: 0x8, addend: 0x0, symName: __ZNSt3__16vectorIP8HeapNodeIcENS_9allocatorIS3_EEE9__end_capB7v160006Ev, symObjAddr: 0x27D0, symBinAddr: 0x1000064A8, symSize: 0x28 }
  - { offsetInCU: 0xA800, offset: 0xA800, size: 0x8, addend: 0x0, symName: __ZNKSt3__16vectorIP8HeapNodeIcENS_9allocatorIS3_EEE14__annotate_newB7v160006Em, symObjAddr: 0x27F8, symBinAddr: 0x1000064D0, symSize: 0xAC }
  - { offsetInCU: 0xA83F, offset: 0xA83F, size: 0x8, addend: 0x0, symName: __ZNSt3__116allocator_traitsINS_9allocatorIP8HeapNodeIcEEEE8max_sizeB7v160006IS5_vEEmRKS5_, symObjAddr: 0x28D0, symBinAddr: 0x1000065A8, symSize: 0x24 }
  - { offsetInCU: 0xA86D, offset: 0xA86D, size: 0x8, addend: 0x0, symName: __ZNKSt3__16vectorIP8HeapNodeIcENS_9allocatorIS3_EEE7__allocB7v160006Ev, symObjAddr: 0x28F4, symBinAddr: 0x1000065CC, symSize: 0x28 }
  - { offsetInCU: 0xA893, offset: 0xA893, size: 0x8, addend: 0x0, symName: __ZNSt3__114numeric_limitsIlE3maxB7v160006Ev, symObjAddr: 0x291C, symBinAddr: 0x1000065F4, symSize: 0x14 }
  - { offsetInCU: 0xA8BB, offset: 0xA8BB, size: 0x8, addend: 0x0, symName: __ZNKSt3__16__lessImmEclB7v160006ERKmS3_, symObjAddr: 0x2984, symBinAddr: 0x10000665C, symSize: 0x34 }
  - { offsetInCU: 0xA8FD, offset: 0xA8FD, size: 0x8, addend: 0x0, symName: __ZNKSt3__19allocatorIP8HeapNodeIcEE8max_sizeB7v160006Ev, symObjAddr: 0x29B8, symBinAddr: 0x100006690, symSize: 0x14 }
  - { offsetInCU: 0xA923, offset: 0xA923, size: 0x8, addend: 0x0, symName: __ZNKSt3__117__compressed_pairIPP8HeapNodeIcENS_9allocatorIS3_EEE6secondB7v160006Ev, symObjAddr: 0x29CC, symBinAddr: 0x1000066A4, symSize: 0x24 }
  - { offsetInCU: 0xA949, offset: 0xA949, size: 0x8, addend: 0x0, symName: __ZNKSt3__122__compressed_pair_elemINS_9allocatorIP8HeapNodeIcEEELi1ELb1EE5__getB7v160006Ev, symObjAddr: 0x29F0, symBinAddr: 0x1000066C8, symSize: 0x14 }
  - { offsetInCU: 0xA96F, offset: 0xA96F, size: 0x8, addend: 0x0, symName: __ZNSt3__123__libcpp_numeric_limitsIlLb1EE3maxB7v160006Ev, symObjAddr: 0x2A04, symBinAddr: 0x1000066DC, symSize: 0x8 }
  - { offsetInCU: 0xA983, offset: 0xA983, size: 0x8, addend: 0x0, symName: __ZNSt12length_errorC1B7v160006EPKc, symObjAddr: 0x2A70, symBinAddr: 0x100006748, symSize: 0x34 }
  - { offsetInCU: 0xA9BB, offset: 0xA9BB, size: 0x8, addend: 0x0, symName: __ZNSt12length_errorC2B7v160006EPKc, symObjAddr: 0x2AA4, symBinAddr: 0x10000677C, symSize: 0x4C }
  - { offsetInCU: 0xA9F3, offset: 0xA9F3, size: 0x8, addend: 0x0, symName: __ZNSt3__19allocatorIP8HeapNodeIcEE8allocateB7v160006Em, symObjAddr: 0x2AF0, symBinAddr: 0x1000067C8, symSize: 0x84 }
  - { offsetInCU: 0xAA27, offset: 0xAA27, size: 0x8, addend: 0x0, symName: __ZNSt3__117__compressed_pairIPP8HeapNodeIcENS_9allocatorIS3_EEE6secondB7v160006Ev, symObjAddr: 0x2BF4, symBinAddr: 0x1000068CC, symSize: 0x24 }
  - { offsetInCU: 0xAA4D, offset: 0xAA4D, size: 0x8, addend: 0x0, symName: __ZNSt3__122__compressed_pair_elemINS_9allocatorIP8HeapNodeIcEEELi1ELb1EE5__getB7v160006Ev, symObjAddr: 0x2C18, symBinAddr: 0x1000068F0, symSize: 0x14 }
  - { offsetInCU: 0xAA73, offset: 0xAA73, size: 0x8, addend: 0x0, symName: __ZNSt3__117__compressed_pairIPP8HeapNodeIcENS_9allocatorIS3_EEE5firstB7v160006Ev, symObjAddr: 0x2C2C, symBinAddr: 0x100006904, symSize: 0x24 }
  - { offsetInCU: 0xAA99, offset: 0xAA99, size: 0x8, addend: 0x0, symName: __ZNSt3__122__compressed_pair_elemIPP8HeapNodeIcELi0ELb0EE5__getB7v160006Ev, symObjAddr: 0x2C50, symBinAddr: 0x100006928, symSize: 0x14 }
  - { offsetInCU: 0xAABF, offset: 0xAABF, size: 0x8, addend: 0x0, symName: __ZNKSt3__16vectorIP8HeapNodeIcENS_9allocatorIS3_EEE31__annotate_contiguous_containerB7v160006EPKvS8_S8_S8_, symObjAddr: 0x2C64, symBinAddr: 0x10000693C, symSize: 0x20 }
  - { offsetInCU: 0xAB15, offset: 0xAB15, size: 0x8, addend: 0x0, symName: __ZNKSt3__16vectorIP8HeapNodeIcENS_9allocatorIS3_EEE4dataB7v160006Ev, symObjAddr: 0x2C84, symBinAddr: 0x10000695C, symSize: 0x28 }
  - { offsetInCU: 0xAB3B, offset: 0xAB3B, size: 0x8, addend: 0x0, symName: __ZNKSt3__16vectorIP8HeapNodeIcENS_9allocatorIS3_EEE8capacityB7v160006Ev, symObjAddr: 0x2CAC, symBinAddr: 0x100006984, symSize: 0x40 }
  - { offsetInCU: 0xAB61, offset: 0xAB61, size: 0x8, addend: 0x0, symName: __ZNKSt3__16vectorIP8HeapNodeIcENS_9allocatorIS3_EEE9__end_capB7v160006Ev, symObjAddr: 0x2D00, symBinAddr: 0x1000069D8, symSize: 0x28 }
  - { offsetInCU: 0xAB87, offset: 0xAB87, size: 0x8, addend: 0x0, symName: __ZNKSt3__117__compressed_pairIPP8HeapNodeIcENS_9allocatorIS3_EEE5firstB7v160006Ev, symObjAddr: 0x2D28, symBinAddr: 0x100006A00, symSize: 0x24 }
  - { offsetInCU: 0xABAD, offset: 0xABAD, size: 0x8, addend: 0x0, symName: __ZNKSt3__122__compressed_pair_elemIPP8HeapNodeIcELi0ELb0EE5__getB7v160006Ev, symObjAddr: 0x2D4C, symBinAddr: 0x100006A24, symSize: 0x14 }
  - { offsetInCU: 0xABEC, offset: 0xABEC, size: 0x8, addend: 0x0, symName: __ZNSt3__16vectorIP8HeapNodeIcENS_9allocatorIS3_EEE21_ConstructTransactionC1B7v160006ERS6_m, symObjAddr: 0x2D60, symBinAddr: 0x100006A38, symSize: 0x3C }
  - { offsetInCU: 0xAC34, offset: 0xAC34, size: 0x8, addend: 0x0, symName: __ZNSt3__116allocator_traitsINS_9allocatorIP8HeapNodeIcEEEE9constructB7v160006IS4_JRKS4_EvEEvRS5_PT_DpOT0_, symObjAddr: 0x2D9C, symBinAddr: 0x100006A74, symSize: 0x34 }
  - { offsetInCU: 0xAC8B, offset: 0xAC8B, size: 0x8, addend: 0x0, symName: __ZNSt3__16vectorIP8HeapNodeIcENS_9allocatorIS3_EEE21_ConstructTransactionD1B7v160006Ev, symObjAddr: 0x2DD0, symBinAddr: 0x100006AA8, symSize: 0x2C }
  - { offsetInCU: 0xACB5, offset: 0xACB5, size: 0x8, addend: 0x0, symName: __ZNSt3__16vectorIP8HeapNodeIcENS_9allocatorIS3_EEE21_ConstructTransactionC2B7v160006ERS6_m, symObjAddr: 0x2DFC, symBinAddr: 0x100006AD4, symSize: 0x44 }
  - { offsetInCU: 0xACFD, offset: 0xACFD, size: 0x8, addend: 0x0, symName: __ZNSt3__19allocatorIP8HeapNodeIcEE9constructB7v160006IS3_JRKS3_EEEvPT_DpOT0_, symObjAddr: 0x2E40, symBinAddr: 0x100006B18, symSize: 0x28 }
  - { offsetInCU: 0xAD53, offset: 0xAD53, size: 0x8, addend: 0x0, symName: __ZNSt3__16vectorIP8HeapNodeIcENS_9allocatorIS3_EEE21_ConstructTransactionD2B7v160006Ev, symObjAddr: 0x2E68, symBinAddr: 0x100006B40, symSize: 0x20 }
  - { offsetInCU: 0xAD7D, offset: 0xAD7D, size: 0x8, addend: 0x0, symName: __ZNSt3__128__exception_guard_exceptionsINS_6vectorIP8HeapNodeIcENS_9allocatorIS4_EEE16__destroy_vectorEED2B7v160006Ev, symObjAddr: 0x2E88, symBinAddr: 0x100006B60, symSize: 0x48 }
  - { offsetInCU: 0xADA7, offset: 0xADA7, size: 0x8, addend: 0x0, symName: __ZNSt3__16vectorIP8HeapNodeIcENS_9allocatorIS3_EEE16__destroy_vectorclB7v160006Ev, symObjAddr: 0x2ED0, symBinAddr: 0x100006BA8, symSize: 0x9C }
  - { offsetInCU: 0xADCD, offset: 0xADCD, size: 0x8, addend: 0x0, symName: __ZNKSt3__16vectorIP8HeapNodeIcENS_9allocatorIS3_EEE17__annotate_deleteB7v160006Ev, symObjAddr: 0x2F6C, symBinAddr: 0x100006C44, symSize: 0xB8 }
  - { offsetInCU: 0xADF3, offset: 0xADF3, size: 0x8, addend: 0x0, symName: __ZNSt3__16vectorIP8HeapNodeIcENS_9allocatorIS3_EEE7__clearB7v160006Ev, symObjAddr: 0x3034, symBinAddr: 0x100006D0C, symSize: 0x28 }
  - { offsetInCU: 0xAE19, offset: 0xAE19, size: 0x8, addend: 0x0, symName: __ZNSt3__116allocator_traitsINS_9allocatorIP8HeapNodeIcEEEE10deallocateB7v160006ERS5_PS4_m, symObjAddr: 0x305C, symBinAddr: 0x100006D34, symSize: 0x34 }
  - { offsetInCU: 0xAE5B, offset: 0xAE5B, size: 0x8, addend: 0x0, symName: __ZNKSt3__16vectorIP8HeapNodeIcENS_9allocatorIS3_EEE4sizeB7v160006Ev, symObjAddr: 0x3090, symBinAddr: 0x100006D68, symSize: 0x28 }
  - { offsetInCU: 0xAE81, offset: 0xAE81, size: 0x8, addend: 0x0, symName: __ZNSt3__16vectorIP8HeapNodeIcENS_9allocatorIS3_EEE22__base_destruct_at_endB7v160006EPS3_, symObjAddr: 0x30B8, symBinAddr: 0x100006D90, symSize: 0xA0 }
  - { offsetInCU: 0xAEC5, offset: 0xAEC5, size: 0x8, addend: 0x0, symName: __ZNSt3__116allocator_traitsINS_9allocatorIP8HeapNodeIcEEEE7destroyB7v160006IS4_vEEvRS5_PT_, symObjAddr: 0x3158, symBinAddr: 0x100006E30, symSize: 0x2C }
  - { offsetInCU: 0xAF02, offset: 0xAF02, size: 0x8, addend: 0x0, symName: __ZNSt3__19allocatorIP8HeapNodeIcEE7destroyB7v160006EPS3_, symObjAddr: 0x3184, symBinAddr: 0x100006E5C, symSize: 0x14 }
  - { offsetInCU: 0xAF36, offset: 0xAF36, size: 0x8, addend: 0x0, symName: __ZNSt3__19allocatorIP8HeapNodeIcEE10deallocateB7v160006EPS3_m, symObjAddr: 0x3198, symBinAddr: 0x100006E70, symSize: 0x70 }
  - { offsetInCU: 0xAF78, offset: 0xAF78, size: 0x8, addend: 0x0, symName: __ZN20CircularDynamicArrayIP8HeapNodeIcEE6addEndES2_, symObjAddr: 0x3284, symBinAddr: 0x100006F5C, symSize: 0x88 }
  - { offsetInCU: 0xAFAC, offset: 0xAFAC, size: 0x8, addend: 0x0, symName: __ZN20CircularDynamicArrayIP8HeapNodeIcEE6lengthEv, symObjAddr: 0x330C, symBinAddr: 0x100006FE4, symSize: 0x18 }
  - { offsetInCU: 0xAFD2, offset: 0xAFD2, size: 0x8, addend: 0x0, symName: __ZN20CircularDynamicArrayIP8HeapNodeIcEEixEi, symObjAddr: 0x3324, symBinAddr: 0x100006FFC, symSize: 0x118 }
  - { offsetInCU: 0xB006, offset: 0xB006, size: 0x8, addend: 0x0, symName: __ZN20CircularDynamicArrayIP8HeapNodeIcEE12increaseSizeEv, symObjAddr: 0x343C, symBinAddr: 0x100007114, symSize: 0x108 }
  - { offsetInCU: 0xB065, offset: 0xB065, size: 0x8, addend: 0x0, symName: __ZNSt3__16vectorIP8HeapNodeIcENS_9allocatorIS3_EEED2B7v160006Ev, symObjAddr: 0x3544, symBinAddr: 0x10000721C, symSize: 0x3C }
  - { offsetInCU: 0xB08F, offset: 0xB08F, size: 0x8, addend: 0x0, symName: __ZN8HeapNodeIcED2Ev, symObjAddr: 0x3580, symBinAddr: 0x100007258, symSize: 0x38 }
  - { offsetInCU: 0xB0B9, offset: 0xB0B9, size: 0x8, addend: 0x0, symName: __ZN20CircularDynamicArrayIP8HeapNodeIcEED1Ev, symObjAddr: 0x35B8, symBinAddr: 0x100007290, symSize: 0x2C }
  - { offsetInCU: 0xB0E3, offset: 0xB0E3, size: 0x8, addend: 0x0, symName: __ZN20CircularDynamicArrayIP8HeapNodeIcEED2Ev, symObjAddr: 0x35E4, symBinAddr: 0x1000072BC, symSize: 0x50 }
  - { offsetInCU: 0xB10D, offset: 0xB10D, size: 0x8, addend: 0x0, symName: __ZN5BHeapIcE14printKeyHelperEP8HeapNodeIcE, symObjAddr: 0x3634, symBinAddr: 0x10000730C, symSize: 0xF4 }
  - { offsetInCU: 0xB16F, offset: 0xB16F, size: 0x8, addend: 0x0, symName: __ZN8HeapNodeIcE11getChildrenEv, symObjAddr: 0x3728, symBinAddr: 0x100007400, symSize: 0x3C }
  - { offsetInCU: 0xB195, offset: 0xB195, size: 0x8, addend: 0x0, symName: __ZN20CircularDynamicArrayIP8HeapNodeIcEEC1ERKS3_, symObjAddr: 0x3764, symBinAddr: 0x10000743C, symSize: 0x34 }
  - { offsetInCU: 0xB1CD, offset: 0xB1CD, size: 0x8, addend: 0x0, symName: __ZN20CircularDynamicArrayIP8HeapNodeIcEEC2ERKS3_, symObjAddr: 0x3798, symBinAddr: 0x100007470, symSize: 0x134 }
  - { offsetInCU: 0xB231, offset: 0xB231, size: 0x8, addend: 0x0, symName: __ZNKSt3__16__lessIiiEclB7v160006ERKiS3_, symObjAddr: 0x394C, symBinAddr: 0x100007624, symSize: 0x34 }
...
