---
triple:          'arm64-apple-darwin'
binary-path:     '/Users/waltermink/Library/CloudStorage/OneDrive-TheUniversityofAlabama/Sophomore Year/Spring/CS 201/Code Projects/Phase 3/fullTest'
relocations:
  - { offsetInCU: 0x2E4F, offset: 0x2E4F, size: 0x8, addend: 0x0, symName: __ZNSt3__124__put_character_sequenceB7v160006IcNS_11char_traitsIcEEEERNS_13basic_ostreamIT_T0_EES7_PKS4_m, symObjAddr: 0x1C9C, symBinAddr: 0x10000469C, symSize: 0x1F4 }
  - { offsetInCU: 0x8BCF, offset: 0x8BCF, size: 0x8, addend: 0x0, symName: __ZNSt3__1lsB7v160006INS_11char_traitsIcEEEERNS_13basic_ostreamIcT_EES6_PKc, symObjAddr: 0x244, symBinAddr: 0x100002C44, symSize: 0x48 }
  - { offsetInCU: 0x8C15, offset: 0x8C15, size: 0x8, addend: 0x0, symName: __ZNSt3__1lsB7v160006IcNS_11char_traitsIcEENS_9allocatorIcEEEERNS_13basic_ostreamIT_T0_EES9_RKNS_12basic_stringIS6_S7_T1_EE, symObjAddr: 0x28C, symBinAddr: 0x100002C8C, symSize: 0x4C }
  - { offsetInCU: 0x8C6D, offset: 0x8C6D, size: 0x8, addend: 0x0, symName: __ZNSt3__14endlB7v160006IcNS_11char_traitsIcEEEERNS_13basic_ostreamIT_T0_EES7_, symObjAddr: 0x304, symBinAddr: 0x100002D04, symSize: 0x58 }
  - { offsetInCU: 0x8CAD, offset: 0x8CAD, size: 0x8, addend: 0x0, symName: __ZNSt3__116__pad_and_outputB7v160006IcNS_11char_traitsIcEEEENS_19ostreambuf_iteratorIT_T0_EES6_PKS4_S8_S8_RNS_8ios_baseES4_, symObjAddr: 0x1F28, symBinAddr: 0x100004928, symSize: 0x248 }
  - { offsetInCU: 0x8D7C, offset: 0x8D7C, size: 0x8, addend: 0x0, symName: __ZNSt3__119__debug_db_insert_cB7v160006INS_12basic_stringIcNS_11char_traitsIcEENS_9allocatorIcEEEEEEvPT_, symObjAddr: 0x23BC, symBinAddr: 0x100004DBC, symSize: 0x10 }
  - { offsetInCU: 0x8DAD, offset: 0x8DAD, size: 0x8, addend: 0x0, symName: __ZNSt3__19use_facetB7v160006INS_5ctypeIcEEEERKT_RKNS_6localeE, symObjAddr: 0x25E8, symBinAddr: 0x100004FE8, symSize: 0x2C }
  - { offsetInCU: 0x927C, offset: 0x927C, size: 0x8, addend: 0x0, symName: __ZNSt3__112__to_addressB7v160006IKcEEPT_S3_, symObjAddr: 0x2680, symBinAddr: 0x100005080, symSize: 0x14 }
  - { offsetInCU: 0x92B1, offset: 0x92B1, size: 0x8, addend: 0x0, symName: __ZNSt3__130__libcpp_is_constant_evaluatedB7v160006Ev, symObjAddr: 0x27AC, symBinAddr: 0x1000051AC, symSize: 0xC }
  - { offsetInCU: 0x9301, offset: 0x9301, size: 0x8, addend: 0x0, symName: __ZNSt3__118__constexpr_strlenB7v160006EPKc, symObjAddr: 0x28A8, symBinAddr: 0x1000052A8, symSize: 0x24 }
  - { offsetInCU: 0x932D, offset: 0x932D, size: 0x8, addend: 0x0, symName: __ZNSt3__1gtB7v160006IcNS_11char_traitsIcEENS_9allocatorIcEEEEbRKNS_12basic_stringIT_T0_T1_EESB_, symObjAddr: 0x2FD8, symBinAddr: 0x1000059D8, symSize: 0x30 }
  - { offsetInCU: 0x9385, offset: 0x9385, size: 0x8, addend: 0x0, symName: __ZNSt3__14swapB7v160006IP8HeapNodeINS_12basic_stringIcNS_11char_traitsIcEENS_9allocatorIcEEEEEEEvRT_SB_, symObjAddr: 0x3040, symBinAddr: 0x100005A40, symSize: 0x3C }
  - { offsetInCU: 0x93D6, offset: 0x93D6, size: 0x8, addend: 0x0, symName: __ZNSt3__1ltB7v160006IcNS_11char_traitsIcEENS_9allocatorIcEEEEbRKNS_12basic_stringIT_T0_T1_EESB_, symObjAddr: 0x3458, symBinAddr: 0x100005E58, symSize: 0x38 }
  - { offsetInCU: 0x942E, offset: 0x942E, size: 0x8, addend: 0x0, symName: __ZNSt3__122__make_exception_guardB7v160006INS_6vectorIP8HeapNodeINS_12basic_stringIcNS_11char_traitsIcEENS_9allocatorIcEEEEENS6_ISA_EEE16__destroy_vectorEEENS_28__exception_guard_exceptionsIT_EESF_, symObjAddr: 0x35E8, symBinAddr: 0x100005FE8, symSize: 0x40 }
  - { offsetInCU: 0x9463, offset: 0x9463, size: 0x8, addend: 0x0, symName: __ZNSt3__119__debug_db_insert_cB7v160006INS_6vectorIP8HeapNodeINS_12basic_stringIcNS_11char_traitsIcEENS_9allocatorIcEEEEENS6_ISA_EEEEEEvPT_, symObjAddr: 0x365C, symBinAddr: 0x10000605C, symSize: 0x10 }
  - { offsetInCU: 0x9494, offset: 0x9494, size: 0x8, addend: 0x0, symName: __ZNSt3__119__allocate_at_leastB7v160006INS_9allocatorIP8HeapNodeINS_12basic_stringIcNS_11char_traitsIcEENS1_IcEEEEEEEEENS_19__allocation_resultINS_16allocator_traitsIT_E7pointerEEERSD_m, symObjAddr: 0x3A08, symBinAddr: 0x100006408, symSize: 0x40 }
  - { offsetInCU: 0x94D7, offset: 0x94D7, size: 0x8, addend: 0x0, symName: __ZNSt3__13minB7v160006ImEERKT_S3_S3_, symObjAddr: 0x3B44, symBinAddr: 0x100006544, symSize: 0x2C }
  - { offsetInCU: 0x971B, offset: 0x971B, size: 0x8, addend: 0x0, symName: __ZNSt3__13minB7v160006ImNS_6__lessImmEEEERKT_S5_S5_T0_, symObjAddr: 0x3BD0, symBinAddr: 0x1000065D0, symSize: 0x54 }
  - { offsetInCU: 0x97B0, offset: 0x97B0, size: 0x8, addend: 0x0, symName: __ZNSt3__120__throw_length_errorB7v160006EPKc, symObjAddr: 0x3CAC, symBinAddr: 0x1000066AC, symSize: 0x64 }
  - { offsetInCU: 0x97D8, offset: 0x97D8, size: 0x8, addend: 0x0, symName: __ZNSt3__117__libcpp_allocateB7v160006Emm, symObjAddr: 0x3E48, symBinAddr: 0x100006848, symSize: 0x28 }
  - { offsetInCU: 0x9815, offset: 0x9815, size: 0x8, addend: 0x0, symName: __ZNSt3__121__libcpp_operator_newB7v160006IJmEEEPvDpT_, symObjAddr: 0x3E70, symBinAddr: 0x100006870, symSize: 0x24 }
  - { offsetInCU: 0x984E, offset: 0x984E, size: 0x8, addend: 0x0, symName: __ZNSt3__112__to_addressB7v160006IP8HeapNodeINS_12basic_stringIcNS_11char_traitsIcEENS_9allocatorIcEEEEEEEPT_SB_, symObjAddr: 0x3F8C, symBinAddr: 0x10000698C, symSize: 0x14 }
  - { offsetInCU: 0x9883, offset: 0x9883, size: 0x8, addend: 0x0, symName: __ZNSt3__118__debug_db_erase_cB7v160006INS_6vectorIP8HeapNodeINS_12basic_stringIcNS_11char_traitsIcEENS_9allocatorIcEEEEENS6_ISA_EEEEEEvPT_, symObjAddr: 0x42C4, symBinAddr: 0x100006CC4, symSize: 0x10 }
  - { offsetInCU: 0x98B4, offset: 0x98B4, size: 0x8, addend: 0x0, symName: __ZNSt3__119__libcpp_deallocateB7v160006EPvmm, symObjAddr: 0x44A8, symBinAddr: 0x100006EA8, symSize: 0x30 }
  - { offsetInCU: 0x98FC, offset: 0x98FC, size: 0x8, addend: 0x0, symName: __ZNSt3__127__do_deallocate_handle_sizeB7v160006IJEEEvPvmDpT_, symObjAddr: 0x44D8, symBinAddr: 0x100006ED8, symSize: 0x28 }
  - { offsetInCU: 0x993A, offset: 0x993A, size: 0x8, addend: 0x0, symName: __ZNSt3__124__libcpp_operator_deleteB7v160006IJPvEEEvDpT_, symObjAddr: 0x4500, symBinAddr: 0x100006F00, symSize: 0x24 }
  - { offsetInCU: 0x998B, offset: 0x998B, size: 0x8, addend: 0x0, symName: __ZNSt3__1miB7v160006IPKP8HeapNodeINS_12basic_stringIcNS_11char_traitsIcEENS_9allocatorIcEEEEEPS9_EENS_11__wrap_iterIT_E15difference_typeERKSF_RKNSD_IT0_EE, symObjAddr: 0x4834, symBinAddr: 0x100007234, symSize: 0x48 }
  - { offsetInCU: 0x9A0A, offset: 0x9A0A, size: 0x8, addend: 0x0, symName: __ZNSt3__113move_backwardB7v160006IPP8HeapNodeINS_12basic_stringIcNS_11char_traitsIcEENS_9allocatorIcEEEEESA_EET0_T_SC_SB_, symObjAddr: 0x500C, symBinAddr: 0x100007A0C, symSize: 0x40 }
  - { offsetInCU: 0x9A64, offset: 0x9A64, size: 0x8, addend: 0x0, symName: __ZNSt3__115__move_backwardB7v160006INS_17_ClassicAlgPolicyEPP8HeapNodeINS_12basic_stringIcNS_11char_traitsIcEENS_9allocatorIcEEEEESB_SB_EENS_4pairIT0_T2_EESD_T1_SE_, symObjAddr: 0x5074, symBinAddr: 0x100007A74, symSize: 0x44 }
  - { offsetInCU: 0x9AD0, offset: 0x9AD0, size: 0x8, addend: 0x0, symName: __ZNSt3__123__dispatch_copy_or_moveB7v160006INS_17_ClassicAlgPolicyENS_20__move_backward_loopIS1_EENS_23__move_backward_trivialEPP8HeapNodeINS_12basic_stringIcNS_11char_traitsIcEENS_9allocatorIcEEEEESE_SE_EENS_4pairIT2_T4_EESG_T3_SH_, symObjAddr: 0x50B8, symBinAddr: 0x100007AB8, symSize: 0x54 }
  - { offsetInCU: 0x9B4E, offset: 0x9B4E, size: 0x8, addend: 0x0, symName: __ZNSt3__121__unwrap_and_dispatchB7v160006INS_10__overloadINS_20__move_backward_loopINS_17_ClassicAlgPolicyEEENS_23__move_backward_trivialEEEPP8HeapNodeINS_12basic_stringIcNS_11char_traitsIcEENS_9allocatorIcEEEEESG_SG_Li0EEENS_4pairIT0_T2_EESI_T1_SJ_, symObjAddr: 0x510C, symBinAddr: 0x100007B0C, symSize: 0xB4 }
  - { offsetInCU: 0x9BDC, offset: 0x9BDC, size: 0x8, addend: 0x0, symName: __ZNSt3__114__unwrap_rangeB7v160006IPP8HeapNodeINS_12basic_stringIcNS_11char_traitsIcEENS_9allocatorIcEEEEESA_EENS_4pairIT0_SC_EET_SE_, symObjAddr: 0x51C0, symBinAddr: 0x100007BC0, symSize: 0x60 }
  - { offsetInCU: 0x9D57, offset: 0x9D57, size: 0x8, addend: 0x0, symName: __ZNSt3__113__unwrap_iterB7v160006IPP8HeapNodeINS_12basic_stringIcNS_11char_traitsIcEENS_9allocatorIcEEEEENS_18__unwrap_iter_implISA_Lb1EEELi0EEEDTclsrT0_8__unwrapclsr3stdE7declvalIT_EEEESE_, symObjAddr: 0x5268, symBinAddr: 0x100007C68, symSize: 0x24 }
  - { offsetInCU: 0x9D9B, offset: 0x9D9B, size: 0x8, addend: 0x0, symName: __ZNSt3__19make_pairB7v160006IPP8HeapNodeINS_12basic_stringIcNS_11char_traitsIcEENS_9allocatorIcEEEEESA_EENS_4pairINS_18__unwrap_ref_decayIT_E4typeENSC_IT0_E4typeEEEOSD_OSG_, symObjAddr: 0x528C, symBinAddr: 0x100007C8C, symSize: 0x38 }
  - { offsetInCU: 0x9DEA, offset: 0x9DEA, size: 0x8, addend: 0x0, symName: __ZNSt3__114__rewrap_rangeB7v160006IPP8HeapNodeINS_12basic_stringIcNS_11char_traitsIcEENS_9allocatorIcEEEEESA_EET_SB_T0_, symObjAddr: 0x52C4, symBinAddr: 0x100007CC4, symSize: 0x2C }
  - { offsetInCU: 0x9E36, offset: 0x9E36, size: 0x8, addend: 0x0, symName: __ZNSt3__113__rewrap_iterB7v160006IPP8HeapNodeINS_12basic_stringIcNS_11char_traitsIcEENS_9allocatorIcEEEEESA_NS_18__unwrap_iter_implISA_Lb1EEEEET_SD_T0_, symObjAddr: 0x52F0, symBinAddr: 0x100007CF0, symSize: 0x50 }
  - { offsetInCU: 0x9E8B, offset: 0x9E8B, size: 0x8, addend: 0x0, symName: __ZNSt3__128__copy_backward_trivial_implB7v160006IP8HeapNodeINS_12basic_stringIcNS_11char_traitsIcEENS_9allocatorIcEEEEES9_EENS_4pairIPT_PT0_EESC_SC_SE_, symObjAddr: 0x5340, symBinAddr: 0x100007D40, symSize: 0x94 }
  - { offsetInCU: 0x9EF3, offset: 0x9EF3, size: 0x8, addend: 0x0, symName: __ZNSt3__19make_pairB7v160006IRPP8HeapNodeINS_12basic_stringIcNS_11char_traitsIcEENS_9allocatorIcEEEEESB_EENS_4pairINS_18__unwrap_ref_decayIT_E4typeENSD_IT0_E4typeEEEOSE_OSH_, symObjAddr: 0x53D4, symBinAddr: 0x100007DD4, symSize: 0x38 }
  - { offsetInCU: 0x9F95, offset: 0x9F95, size: 0x8, addend: 0x0, symName: __ZNSt3__13maxB7v160006ImEERKT_S3_S3_, symObjAddr: 0x54F0, symBinAddr: 0x100007EF0, symSize: 0x2C }
  - { offsetInCU: 0x9FD8, offset: 0x9FD8, size: 0x8, addend: 0x0, symName: __ZNSt3__13maxB7v160006ImNS_6__lessImmEEEERKT_S5_S5_T0_, symObjAddr: 0x551C, symBinAddr: 0x100007F1C, symSize: 0x54 }
  - { offsetInCU: 0xA032, offset: 0xA032, size: 0x8, addend: 0x0, symName: __ZNSt3__14moveB7v160006IPP8HeapNodeINS_12basic_stringIcNS_11char_traitsIcEENS_9allocatorIcEEEEESA_EET0_T_SC_SB_, symObjAddr: 0x579C, symBinAddr: 0x10000819C, symSize: 0x40 }
  - { offsetInCU: 0xA08C, offset: 0xA08C, size: 0x8, addend: 0x0, symName: __ZNSt3__14swapB7v160006IPP8HeapNodeINS_12basic_stringIcNS_11char_traitsIcEENS_9allocatorIcEEEEEEEvRT_SC_, symObjAddr: 0x5914, symBinAddr: 0x100008314, symSize: 0x3C }
  - { offsetInCU: 0xA0DD, offset: 0xA0DD, size: 0x8, addend: 0x0, symName: __ZNSt3__16__moveB7v160006INS_17_ClassicAlgPolicyEPP8HeapNodeINS_12basic_stringIcNS_11char_traitsIcEENS_9allocatorIcEEEEESB_SB_EENS_4pairIT0_T2_EESD_T1_SE_, symObjAddr: 0x5950, symBinAddr: 0x100008350, symSize: 0x44 }
  - { offsetInCU: 0xA149, offset: 0xA149, size: 0x8, addend: 0x0, symName: __ZNSt3__123__dispatch_copy_or_moveB7v160006INS_17_ClassicAlgPolicyENS_11__move_loopIS1_EENS_14__move_trivialEPP8HeapNodeINS_12basic_stringIcNS_11char_traitsIcEENS_9allocatorIcEEEEESE_SE_EENS_4pairIT2_T4_EESG_T3_SH_, symObjAddr: 0x5994, symBinAddr: 0x100008394, symSize: 0x54 }
  - { offsetInCU: 0xA1C7, offset: 0xA1C7, size: 0x8, addend: 0x0, symName: __ZNSt3__121__unwrap_and_dispatchB7v160006INS_10__overloadINS_11__move_loopINS_17_ClassicAlgPolicyEEENS_14__move_trivialEEEPP8HeapNodeINS_12basic_stringIcNS_11char_traitsIcEENS_9allocatorIcEEEEESG_SG_Li0EEENS_4pairIT0_T2_EESI_T1_SJ_, symObjAddr: 0x59E8, symBinAddr: 0x1000083E8, symSize: 0xB4 }
  - { offsetInCU: 0xA2D7, offset: 0xA2D7, size: 0x8, addend: 0x0, symName: __ZNSt3__119__copy_trivial_implB7v160006IP8HeapNodeINS_12basic_stringIcNS_11char_traitsIcEENS_9allocatorIcEEEEES9_EENS_4pairIPT_PT0_EESC_SC_SE_, symObjAddr: 0x5AE4, symBinAddr: 0x1000084E4, symSize: 0x84 }
  - { offsetInCU: 0xA33F, offset: 0xA33F, size: 0x8, addend: 0x0, symName: __ZNSt3__19make_pairB7v160006IRPP8HeapNodeINS_12basic_stringIcNS_11char_traitsIcEENS_9allocatorIcEEEEESA_EENS_4pairINS_18__unwrap_ref_decayIT_E4typeENSD_IT0_E4typeEEEOSE_OSH_, symObjAddr: 0x5B68, symBinAddr: 0x100008568, symSize: 0x38 }
  - { offsetInCU: 0xA38E, offset: 0xA38E, size: 0x8, addend: 0x0, symName: __ZNSt3__18distanceB7v160006INS_13move_iteratorIPP8HeapNodeINS_12basic_stringIcNS_11char_traitsIcEENS_9allocatorIcEEEEEEEEENS_15iterator_traitsIT_E15difference_typeESE_SE_, symObjAddr: 0x5BA0, symBinAddr: 0x1000085A0, symSize: 0x3C }
  - { offsetInCU: 0xA3D1, offset: 0xA3D1, size: 0x8, addend: 0x0, symName: __ZNSt3__110__distanceB7v160006INS_13move_iteratorIPP8HeapNodeINS_12basic_stringIcNS_11char_traitsIcEENS_9allocatorIcEEEEEEEEENS_15iterator_traitsIT_E15difference_typeESE_SE_NS_26random_access_iterator_tagE, symObjAddr: 0x5C7C, symBinAddr: 0x10000867C, symSize: 0x30 }
  - { offsetInCU: 0xA41E, offset: 0xA41E, size: 0x8, addend: 0x0, symName: __ZNSt3__1miB7v160006IPP8HeapNodeINS_12basic_stringIcNS_11char_traitsIcEENS_9allocatorIcEEEEESA_EENS_13move_iteratorIT_E15difference_typeERKSD_RKNSB_IT0_EE, symObjAddr: 0x5CAC, symBinAddr: 0x1000086AC, symSize: 0x48 }
  - { offsetInCU: 0xA46D, offset: 0xA46D, size: 0x8, addend: 0x0, symName: __ZNSt3__142__uninitialized_allocator_move_if_noexceptB7v160006INS_9allocatorIP8HeapNodeINS_12basic_stringIcNS_11char_traitsIcEENS1_IcEEEEEEENS_16reverse_iteratorIPS9_EESD_S9_vEET1_RT_T0_SH_SE_, symObjAddr: 0x5D90, symBinAddr: 0x100008790, symSize: 0xE8 }
  - { offsetInCU: 0xA4EA, offset: 0xA4EA, size: 0x8, addend: 0x0, symName: __ZNSt3__142__uninitialized_allocator_move_if_noexceptB7v160006INS_9allocatorIP8HeapNodeINS_12basic_stringIcNS_11char_traitsIcEENS1_IcEEEEEEEPS9_SB_S9_vEET1_RT_T0_SF_SC_, symObjAddr: 0x5EC4, symBinAddr: 0x1000088C4, symSize: 0xA4 }
  - { offsetInCU: 0xA566, offset: 0xA566, size: 0x8, addend: 0x0, symName: __ZNSt3__125__debug_db_invalidate_allB7v160006INS_6vectorIP8HeapNodeINS_12basic_stringIcNS_11char_traitsIcEENS_9allocatorIcEEEEENS6_ISA_EEEEEEvPT_, symObjAddr: 0x5F68, symBinAddr: 0x100008968, symSize: 0x10 }
  - { offsetInCU: 0xA597, offset: 0xA597, size: 0x8, addend: 0x0, symName: __ZNSt3__1neB7v160006IPP8HeapNodeINS_12basic_stringIcNS_11char_traitsIcEENS_9allocatorIcEEEEESA_EEbRKNS_16reverse_iteratorIT_EERKNSB_IT0_EE, symObjAddr: 0x5F78, symBinAddr: 0x100008978, symSize: 0x48 }
  - { offsetInCU: 0xA608, offset: 0xA608, size: 0x8, addend: 0x0, symName: __ZNSt3__114__construct_atB7v160006IP8HeapNodeINS_12basic_stringIcNS_11char_traitsIcEENS_9allocatorIcEEEEEJS9_EPS9_EEPT_SC_DpOT0_, symObjAddr: 0x5FC0, symBinAddr: 0x1000089C0, symSize: 0x2C }
  - { offsetInCU: 0xA678, offset: 0xA678, size: 0x8, addend: 0x0, symName: __ZNSt3__112__to_addressB7v160006INS_16reverse_iteratorIPP8HeapNodeINS_12basic_stringIcNS_11char_traitsIcEENS_9allocatorIcEEEEEEEvEENS_5decayIDTclsr19__to_address_helperIT_EE6__callclsr3stdE7declvalIRKSE_EEEEE4typeESG_, symObjAddr: 0x5FEC, symBinAddr: 0x1000089EC, symSize: 0x24 }
  - { offsetInCU: 0xA6AE, offset: 0xA6AE, size: 0x8, addend: 0x0, symName: __ZNSt3__14moveB7v160006INS_16reverse_iteratorIPP8HeapNodeINS_12basic_stringIcNS_11char_traitsIcEENS_9allocatorIcEEEEEEESC_EET0_T_SE_SD_, symObjAddr: 0x6058, symBinAddr: 0x100008A58, symSize: 0x78 }
  - { offsetInCU: 0xA731, offset: 0xA731, size: 0x8, addend: 0x0, symName: __ZNSt3__16__moveB7v160006INS_17_ClassicAlgPolicyENS_16reverse_iteratorIPP8HeapNodeINS_12basic_stringIcNS_11char_traitsIcEENS_9allocatorIcEEEEEEESD_SD_EENS_4pairIT0_T2_EESF_T1_SG_, symObjAddr: 0x6140, symBinAddr: 0x100008B40, symSize: 0x64 }
  - { offsetInCU: 0xA79D, offset: 0xA79D, size: 0x8, addend: 0x0, symName: __ZNSt3__123__dispatch_copy_or_moveB7v160006INS_17_ClassicAlgPolicyENS_11__move_loopIS1_EENS_14__move_trivialENS_16reverse_iteratorIPP8HeapNodeINS_12basic_stringIcNS_11char_traitsIcEENS_9allocatorIcEEEEEEESG_SG_EENS_4pairIT2_T4_EESI_T3_SJ_, symObjAddr: 0x61A4, symBinAddr: 0x100008BA4, symSize: 0x7C }
  - { offsetInCU: 0xA81B, offset: 0xA81B, size: 0x8, addend: 0x0, symName: __ZNSt3__121__unwrap_and_dispatchB7v160006INS_10__overloadINS_11__move_loopINS_17_ClassicAlgPolicyEEENS_14__move_trivialEEENS_16reverse_iteratorIPP8HeapNodeINS_12basic_stringIcNS_11char_traitsIcEENS_9allocatorIcEEEEEEESI_SI_Li0EEENS_4pairIT0_T2_EESK_T1_SL_, symObjAddr: 0x6220, symBinAddr: 0x100008C20, symSize: 0x12C }
  - { offsetInCU: 0xA8AB, offset: 0xA8AB, size: 0x8, addend: 0x0, symName: __ZNSt3__114__unwrap_rangeB7v160006INS_16reverse_iteratorIPP8HeapNodeINS_12basic_stringIcNS_11char_traitsIcEENS_9allocatorIcEEEEEEESC_EENS_4pairIT0_SE_EET_SG_, symObjAddr: 0x634C, symBinAddr: 0x100008D4C, symSize: 0x84 }
  - { offsetInCU: 0xAA3E, offset: 0xAA3E, size: 0x8, addend: 0x0, symName: __ZNSt3__113__unwrap_iterB7v160006INS_16reverse_iteratorIPP8HeapNodeINS_12basic_stringIcNS_11char_traitsIcEENS_9allocatorIcEEEEEEENS_18__unwrap_iter_implISC_Lb0EEELi0EEEDTclsrT0_8__unwrapclsr3stdE7declvalIT_EEEESG_, symObjAddr: 0x6470, symBinAddr: 0x100008E70, symSize: 0x44 }
  - { offsetInCU: 0xAA82, offset: 0xAA82, size: 0x8, addend: 0x0, symName: __ZNSt3__19make_pairB7v160006INS_16reverse_iteratorIPP8HeapNodeINS_12basic_stringIcNS_11char_traitsIcEENS_9allocatorIcEEEEEEESC_EENS_4pairINS_18__unwrap_ref_decayIT_E4typeENSE_IT0_E4typeEEEOSF_OSI_, symObjAddr: 0x64B4, symBinAddr: 0x100008EB4, symSize: 0x38 }
  - { offsetInCU: 0xAAD1, offset: 0xAAD1, size: 0x8, addend: 0x0, symName: __ZNSt3__114__rewrap_rangeB7v160006INS_16reverse_iteratorIPP8HeapNodeINS_12basic_stringIcNS_11char_traitsIcEENS_9allocatorIcEEEEEEESC_EET_SD_T0_, symObjAddr: 0x64EC, symBinAddr: 0x100008EEC, symSize: 0x5C }
  - { offsetInCU: 0xAB1D, offset: 0xAB1D, size: 0x8, addend: 0x0, symName: __ZNSt3__113__rewrap_iterB7v160006INS_16reverse_iteratorIPP8HeapNodeINS_12basic_stringIcNS_11char_traitsIcEENS_9allocatorIcEEEEEEESC_NS_18__unwrap_iter_implISC_Lb0EEEEET_SF_T0_, symObjAddr: 0x6548, symBinAddr: 0x100008F48, symSize: 0x88 }
  - { offsetInCU: 0xAC7B, offset: 0xAC7B, size: 0x8, addend: 0x0, symName: __ZNSt3__118__constexpr_memcmpB7v160006IcEEiPKT_S3_m, symObjAddr: 0x6C04, symBinAddr: 0x100009604, symSize: 0x34 }
  - { offsetInCU: 0xACCC, offset: 0xACCC, size: 0x8, addend: 0x0, symName: __ZNSt3__130__uninitialized_allocator_copyB7v160006INS_9allocatorIP8HeapNodeINS_12basic_stringIcNS_11char_traitsIcEENS1_IcEEEEEEEPS9_SB_SB_EET2_RT_T0_T1_SC_, symObjAddr: 0x71A0, symBinAddr: 0x100009BA0, symSize: 0xFC }
  - { offsetInCU: 0xAD6A, offset: 0xAD6A, size: 0x8, addend: 0x0, symName: __ZNSt3__122__make_exception_guardB7v160006INS_29_AllocatorDestroyRangeReverseINS_9allocatorIP8HeapNodeINS_12basic_stringIcNS_11char_traitsIcEENS2_IcEEEEEEEPSA_EEEENS_28__exception_guard_exceptionsIT_EESF_, symObjAddr: 0x729C, symBinAddr: 0x100009C9C, symSize: 0x4C }
  - { offsetInCU: 0xADA0, offset: 0xADA0, size: 0x8, addend: 0x0, symName: __ZNSt3__119__allocator_destroyB7v160006INS_9allocatorIP8HeapNodeINS_12basic_stringIcNS_11char_traitsIcEENS1_IcEEEEEEENS_16reverse_iteratorIPS9_EESD_EEvRT_T0_T1_, symObjAddr: 0x751C, symBinAddr: 0x100009F1C, symSize: 0x70 }
  - { offsetInCU: 0xAE03, offset: 0xAE03, size: 0x8, addend: 0x0, symName: __ZNSt3__119__debug_db_insert_cB7v160006INS_6vectorIP8HeapNodeIiENS_9allocatorIS4_EEEEEEvPT_, symObjAddr: 0x7ED4, symBinAddr: 0x10000A8D4, symSize: 0x10 }
  - { offsetInCU: 0xAE34, offset: 0xAE34, size: 0x8, addend: 0x0, symName: __ZNSt3__122__make_exception_guardB7v160006INS_6vectorIP8HeapNodeIiENS_9allocatorIS4_EEE16__destroy_vectorEEENS_28__exception_guard_exceptionsIT_EESA_, symObjAddr: 0x8794, symBinAddr: 0x10000B194, symSize: 0x40 }
  - { offsetInCU: 0xAE69, offset: 0xAE69, size: 0x8, addend: 0x0, symName: __ZNSt3__119__allocate_at_leastB7v160006INS_9allocatorIP8HeapNodeIiEEEEENS_19__allocation_resultINS_16allocator_traitsIT_E7pointerEEERS8_m, symObjAddr: 0x8B54, symBinAddr: 0x10000B554, symSize: 0x40 }
  - { offsetInCU: 0xAEAC, offset: 0xAEAC, size: 0x8, addend: 0x0, symName: __ZNSt3__112__to_addressB7v160006IP8HeapNodeIiEEEPT_S5_, symObjAddr: 0x8E44, symBinAddr: 0x10000B844, symSize: 0x14 }
  - { offsetInCU: 0xAEE1, offset: 0xAEE1, size: 0x8, addend: 0x0, symName: __ZNSt3__130__uninitialized_allocator_copyB7v160006INS_9allocatorIP8HeapNodeIiEEEPS4_S6_S6_EET2_RT_T0_T1_S7_, symObjAddr: 0x8EF4, symBinAddr: 0x10000B8F4, symSize: 0xFC }
  - { offsetInCU: 0xAF7F, offset: 0xAF7F, size: 0x8, addend: 0x0, symName: __ZNSt3__122__make_exception_guardB7v160006INS_29_AllocatorDestroyRangeReverseINS_9allocatorIP8HeapNodeIiEEEPS5_EEEENS_28__exception_guard_exceptionsIT_EESA_, symObjAddr: 0x9060, symBinAddr: 0x10000BA60, symSize: 0x4C }
  - { offsetInCU: 0xAFB5, offset: 0xAFB5, size: 0x8, addend: 0x0, symName: __ZNSt3__119__allocator_destroyB7v160006INS_9allocatorIP8HeapNodeIiEEENS_16reverse_iteratorIPS4_EES8_EEvRT_T0_T1_, symObjAddr: 0x92E0, symBinAddr: 0x10000BCE0, symSize: 0x70 }
  - { offsetInCU: 0xB018, offset: 0xB018, size: 0x8, addend: 0x0, symName: __ZNSt3__1neB7v160006IPP8HeapNodeIiES4_EEbRKNS_16reverse_iteratorIT_EERKNS5_IT0_EE, symObjAddr: 0x9384, symBinAddr: 0x10000BD84, symSize: 0x48 }
  - { offsetInCU: 0xB064, offset: 0xB064, size: 0x8, addend: 0x0, symName: __ZNSt3__112__to_addressB7v160006INS_16reverse_iteratorIPP8HeapNodeIiEEEvEENS_5decayIDTclsr19__to_address_helperIT_EE6__callclsr3stdE7declvalIRKS8_EEEEE4typeESA_, symObjAddr: 0x93F8, symBinAddr: 0x10000BDF8, symSize: 0x24 }
  - { offsetInCU: 0xB0C3, offset: 0xB0C3, size: 0x8, addend: 0x0, symName: __ZNSt3__118__debug_db_erase_cB7v160006INS_6vectorIP8HeapNodeIiENS_9allocatorIS4_EEEEEEvPT_, symObjAddr: 0x96E4, symBinAddr: 0x10000C0E4, symSize: 0x10 }
  - { offsetInCU: 0xB0F4, offset: 0xB0F4, size: 0x8, addend: 0x0, symName: __ZNSt3__14swapB7v160006IP8HeapNodeIiEEEvRT_S5_, symObjAddr: 0x9918, symBinAddr: 0x10000C318, symSize: 0x3C }
  - { offsetInCU: 0xB145, offset: 0xB145, size: 0x8, addend: 0x0, symName: __ZNSt3__1miB7v160006IPKP8HeapNodeIiEPS3_EENS_11__wrap_iterIT_E15difference_typeERKS9_RKNS7_IT0_EE, symObjAddr: 0xA0FC, symBinAddr: 0x10000CAFC, symSize: 0x48 }
  - { offsetInCU: 0xB1C4, offset: 0xB1C4, size: 0x8, addend: 0x0, symName: __ZNSt3__113move_backwardB7v160006IPP8HeapNodeIiES4_EET0_T_S6_S5_, symObjAddr: 0xA8D4, symBinAddr: 0x10000D2D4, symSize: 0x40 }
  - { offsetInCU: 0xB21E, offset: 0xB21E, size: 0x8, addend: 0x0, symName: __ZNSt3__115__move_backwardB7v160006INS_17_ClassicAlgPolicyEPP8HeapNodeIiES5_S5_EENS_4pairIT0_T2_EES7_T1_S8_, symObjAddr: 0xA93C, symBinAddr: 0x10000D33C, symSize: 0x44 }
  - { offsetInCU: 0xB28A, offset: 0xB28A, size: 0x8, addend: 0x0, symName: __ZNSt3__123__dispatch_copy_or_moveB7v160006INS_17_ClassicAlgPolicyENS_20__move_backward_loopIS1_EENS_23__move_backward_trivialEPP8HeapNodeIiES8_S8_EENS_4pairIT2_T4_EESA_T3_SB_, symObjAddr: 0xA980, symBinAddr: 0x10000D380, symSize: 0x54 }
  - { offsetInCU: 0xB308, offset: 0xB308, size: 0x8, addend: 0x0, symName: __ZNSt3__121__unwrap_and_dispatchB7v160006INS_10__overloadINS_20__move_backward_loopINS_17_ClassicAlgPolicyEEENS_23__move_backward_trivialEEEPP8HeapNodeIiESA_SA_Li0EEENS_4pairIT0_T2_EESC_T1_SD_, symObjAddr: 0xA9D4, symBinAddr: 0x10000D3D4, symSize: 0xB4 }
  - { offsetInCU: 0xB396, offset: 0xB396, size: 0x8, addend: 0x0, symName: __ZNSt3__114__unwrap_rangeB7v160006IPP8HeapNodeIiES4_EENS_4pairIT0_S6_EET_S8_, symObjAddr: 0xAA88, symBinAddr: 0x10000D488, symSize: 0x60 }
  - { offsetInCU: 0xB48F, offset: 0xB48F, size: 0x8, addend: 0x0, symName: __ZNSt3__113__unwrap_iterB7v160006IPP8HeapNodeIiENS_18__unwrap_iter_implIS4_Lb1EEELi0EEEDTclsrT0_8__unwrapclsr3stdE7declvalIT_EEEES8_, symObjAddr: 0xAB30, symBinAddr: 0x10000D530, symSize: 0x24 }
  - { offsetInCU: 0xB4D3, offset: 0xB4D3, size: 0x8, addend: 0x0, symName: __ZNSt3__19make_pairB7v160006IPP8HeapNodeIiES4_EENS_4pairINS_18__unwrap_ref_decayIT_E4typeENS6_IT0_E4typeEEEOS7_OSA_, symObjAddr: 0xAB54, symBinAddr: 0x10000D554, symSize: 0x38 }
  - { offsetInCU: 0xB522, offset: 0xB522, size: 0x8, addend: 0x0, symName: __ZNSt3__114__rewrap_rangeB7v160006IPP8HeapNodeIiES4_EET_S5_T0_, symObjAddr: 0xAB8C, symBinAddr: 0x10000D58C, symSize: 0x2C }
  - { offsetInCU: 0xB56E, offset: 0xB56E, size: 0x8, addend: 0x0, symName: __ZNSt3__113__rewrap_iterB7v160006IPP8HeapNodeIiES4_NS_18__unwrap_iter_implIS4_Lb1EEEEET_S7_T0_, symObjAddr: 0xABB8, symBinAddr: 0x10000D5B8, symSize: 0x50 }
  - { offsetInCU: 0xB5C3, offset: 0xB5C3, size: 0x8, addend: 0x0, symName: __ZNSt3__128__copy_backward_trivial_implB7v160006IP8HeapNodeIiES3_EENS_4pairIPT_PT0_EES6_S6_S8_, symObjAddr: 0xAC08, symBinAddr: 0x10000D608, symSize: 0x94 }
  - { offsetInCU: 0xB62B, offset: 0xB62B, size: 0x8, addend: 0x0, symName: __ZNSt3__19make_pairB7v160006IRPP8HeapNodeIiES5_EENS_4pairINS_18__unwrap_ref_decayIT_E4typeENS7_IT0_E4typeEEEOS8_OSB_, symObjAddr: 0xAC9C, symBinAddr: 0x10000D69C, symSize: 0x38 }
  - { offsetInCU: 0xB6CD, offset: 0xB6CD, size: 0x8, addend: 0x0, symName: __ZNSt3__14moveB7v160006IPP8HeapNodeIiES4_EET0_T_S6_S5_, symObjAddr: 0xAFE4, symBinAddr: 0x10000D9E4, symSize: 0x40 }
  - { offsetInCU: 0xB727, offset: 0xB727, size: 0x8, addend: 0x0, symName: __ZNSt3__14swapB7v160006IPP8HeapNodeIiEEEvRT_S6_, symObjAddr: 0xB15C, symBinAddr: 0x10000DB5C, symSize: 0x3C }
  - { offsetInCU: 0xB778, offset: 0xB778, size: 0x8, addend: 0x0, symName: __ZNSt3__16__moveB7v160006INS_17_ClassicAlgPolicyEPP8HeapNodeIiES5_S5_EENS_4pairIT0_T2_EES7_T1_S8_, symObjAddr: 0xB198, symBinAddr: 0x10000DB98, symSize: 0x44 }
  - { offsetInCU: 0xB7E4, offset: 0xB7E4, size: 0x8, addend: 0x0, symName: __ZNSt3__123__dispatch_copy_or_moveB7v160006INS_17_ClassicAlgPolicyENS_11__move_loopIS1_EENS_14__move_trivialEPP8HeapNodeIiES8_S8_EENS_4pairIT2_T4_EESA_T3_SB_, symObjAddr: 0xB1DC, symBinAddr: 0x10000DBDC, symSize: 0x54 }
  - { offsetInCU: 0xB862, offset: 0xB862, size: 0x8, addend: 0x0, symName: __ZNSt3__121__unwrap_and_dispatchB7v160006INS_10__overloadINS_11__move_loopINS_17_ClassicAlgPolicyEEENS_14__move_trivialEEEPP8HeapNodeIiESA_SA_Li0EEENS_4pairIT0_T2_EESC_T1_SD_, symObjAddr: 0xB230, symBinAddr: 0x10000DC30, symSize: 0xB4 }
  - { offsetInCU: 0xB8F0, offset: 0xB8F0, size: 0x8, addend: 0x0, symName: __ZNSt3__119__copy_trivial_implB7v160006IP8HeapNodeIiES3_EENS_4pairIPT_PT0_EES6_S6_S8_, symObjAddr: 0xB32C, symBinAddr: 0x10000DD2C, symSize: 0x84 }
  - { offsetInCU: 0xB958, offset: 0xB958, size: 0x8, addend: 0x0, symName: __ZNSt3__19make_pairB7v160006IRPP8HeapNodeIiES4_EENS_4pairINS_18__unwrap_ref_decayIT_E4typeENS7_IT0_E4typeEEEOS8_OSB_, symObjAddr: 0xB3B0, symBinAddr: 0x10000DDB0, symSize: 0x38 }
  - { offsetInCU: 0xB9A7, offset: 0xB9A7, size: 0x8, addend: 0x0, symName: __ZNSt3__18distanceB7v160006INS_13move_iteratorIPP8HeapNodeIiEEEEENS_15iterator_traitsIT_E15difference_typeES8_S8_, symObjAddr: 0xB3E8, symBinAddr: 0x10000DDE8, symSize: 0x3C }
  - { offsetInCU: 0xB9EA, offset: 0xB9EA, size: 0x8, addend: 0x0, symName: __ZNSt3__110__distanceB7v160006INS_13move_iteratorIPP8HeapNodeIiEEEEENS_15iterator_traitsIT_E15difference_typeES8_S8_NS_26random_access_iterator_tagE, symObjAddr: 0xB4C4, symBinAddr: 0x10000DEC4, symSize: 0x30 }
  - { offsetInCU: 0xBA37, offset: 0xBA37, size: 0x8, addend: 0x0, symName: __ZNSt3__1miB7v160006IPP8HeapNodeIiES4_EENS_13move_iteratorIT_E15difference_typeERKS7_RKNS5_IT0_EE, symObjAddr: 0xB4F4, symBinAddr: 0x10000DEF4, symSize: 0x48 }
  - { offsetInCU: 0xBA86, offset: 0xBA86, size: 0x8, addend: 0x0, symName: __ZNSt3__142__uninitialized_allocator_move_if_noexceptB7v160006INS_9allocatorIP8HeapNodeIiEEENS_16reverse_iteratorIPS4_EES8_S4_vEET1_RT_T0_SC_S9_, symObjAddr: 0xB5D8, symBinAddr: 0x10000DFD8, symSize: 0xE8 }
  - { offsetInCU: 0xBB03, offset: 0xBB03, size: 0x8, addend: 0x0, symName: __ZNSt3__142__uninitialized_allocator_move_if_noexceptB7v160006INS_9allocatorIP8HeapNodeIiEEEPS4_S6_S4_vEET1_RT_T0_SA_S7_, symObjAddr: 0xB6C0, symBinAddr: 0x10000E0C0, symSize: 0xA4 }
  - { offsetInCU: 0xBB7F, offset: 0xBB7F, size: 0x8, addend: 0x0, symName: __ZNSt3__125__debug_db_invalidate_allB7v160006INS_6vectorIP8HeapNodeIiENS_9allocatorIS4_EEEEEEvPT_, symObjAddr: 0xB764, symBinAddr: 0x10000E164, symSize: 0x10 }
  - { offsetInCU: 0xBBD5, offset: 0xBBD5, size: 0x8, addend: 0x0, symName: __ZNSt3__114__construct_atB7v160006IP8HeapNodeIiEJS3_EPS3_EEPT_S6_DpOT0_, symObjAddr: 0xB774, symBinAddr: 0x10000E174, symSize: 0x2C }
  - { offsetInCU: 0xBC45, offset: 0xBC45, size: 0x8, addend: 0x0, symName: __ZNSt3__14moveB7v160006INS_16reverse_iteratorIPP8HeapNodeIiEEES6_EET0_T_S8_S7_, symObjAddr: 0xB7A0, symBinAddr: 0x10000E1A0, symSize: 0x78 }
  - { offsetInCU: 0xBC9F, offset: 0xBC9F, size: 0x8, addend: 0x0, symName: __ZNSt3__16__moveB7v160006INS_17_ClassicAlgPolicyENS_16reverse_iteratorIPP8HeapNodeIiEEES7_S7_EENS_4pairIT0_T2_EES9_T1_SA_, symObjAddr: 0xB818, symBinAddr: 0x10000E218, symSize: 0x64 }
  - { offsetInCU: 0xBD0B, offset: 0xBD0B, size: 0x8, addend: 0x0, symName: __ZNSt3__123__dispatch_copy_or_moveB7v160006INS_17_ClassicAlgPolicyENS_11__move_loopIS1_EENS_14__move_trivialENS_16reverse_iteratorIPP8HeapNodeIiEEESA_SA_EENS_4pairIT2_T4_EESC_T3_SD_, symObjAddr: 0xB87C, symBinAddr: 0x10000E27C, symSize: 0x7C }
  - { offsetInCU: 0xBD89, offset: 0xBD89, size: 0x8, addend: 0x0, symName: __ZNSt3__121__unwrap_and_dispatchB7v160006INS_10__overloadINS_11__move_loopINS_17_ClassicAlgPolicyEEENS_14__move_trivialEEENS_16reverse_iteratorIPP8HeapNodeIiEEESC_SC_Li0EEENS_4pairIT0_T2_EESE_T1_SF_, symObjAddr: 0xB8F8, symBinAddr: 0x10000E2F8, symSize: 0x12C }
  - { offsetInCU: 0xBE19, offset: 0xBE19, size: 0x8, addend: 0x0, symName: __ZNSt3__114__unwrap_rangeB7v160006INS_16reverse_iteratorIPP8HeapNodeIiEEES6_EENS_4pairIT0_S8_EET_SA_, symObjAddr: 0xBA24, symBinAddr: 0x10000E424, symSize: 0x84 }
  - { offsetInCU: 0xBF12, offset: 0xBF12, size: 0x8, addend: 0x0, symName: __ZNSt3__113__unwrap_iterB7v160006INS_16reverse_iteratorIPP8HeapNodeIiEEENS_18__unwrap_iter_implIS6_Lb0EEELi0EEEDTclsrT0_8__unwrapclsr3stdE7declvalIT_EEEESA_, symObjAddr: 0xBB48, symBinAddr: 0x10000E548, symSize: 0x44 }
  - { offsetInCU: 0xBF56, offset: 0xBF56, size: 0x8, addend: 0x0, symName: __ZNSt3__19make_pairB7v160006INS_16reverse_iteratorIPP8HeapNodeIiEEES6_EENS_4pairINS_18__unwrap_ref_decayIT_E4typeENS8_IT0_E4typeEEEOS9_OSC_, symObjAddr: 0xBB8C, symBinAddr: 0x10000E58C, symSize: 0x38 }
  - { offsetInCU: 0xBFA5, offset: 0xBFA5, size: 0x8, addend: 0x0, symName: __ZNSt3__114__rewrap_rangeB7v160006INS_16reverse_iteratorIPP8HeapNodeIiEEES6_EET_S7_T0_, symObjAddr: 0xBBC4, symBinAddr: 0x10000E5C4, symSize: 0x5C }
  - { offsetInCU: 0xBFF1, offset: 0xBFF1, size: 0x8, addend: 0x0, symName: __ZNSt3__113__rewrap_iterB7v160006INS_16reverse_iteratorIPP8HeapNodeIiEEES6_NS_18__unwrap_iter_implIS6_Lb0EEEEET_S9_T0_, symObjAddr: 0xBC20, symBinAddr: 0x10000E620, symSize: 0x88 }
  - { offsetInCU: 0xC3D6, offset: 0xC3D6, size: 0x8, addend: 0x0, symName: __ZSt28__throw_bad_array_new_lengthB7v160006v, symObjAddr: 0x3E14, symBinAddr: 0x100006814, symSize: 0x34 }
  - { offsetInCU: 0xCB97, offset: 0xCB97, size: 0x8, addend: 0x0, symName: __ZNSt3__16vectorIP8HeapNodeINS_12basic_stringIcNS_11char_traitsIcEENS_9allocatorIcEEEEENS5_IS9_EEE26__swap_out_circular_bufferERNS_14__split_bufferIS9_RSA_EEPS9_, symObjAddr: 0x4DF4, symBinAddr: 0x1000077F4, symSize: 0x154 }
  - { offsetInCU: 0xD00E, offset: 0xD00E, size: 0x8, addend: 0x0, symName: __ZNSt3__16vectorIP8HeapNodeIiENS_9allocatorIS3_EEE26__swap_out_circular_bufferERNS_14__split_bufferIS3_RS5_EEPS3_, symObjAddr: 0xA6BC, symBinAddr: 0x10000D0BC, symSize: 0x154 }
  - { offsetInCU: 0xF25D, offset: 0xF25D, size: 0x8, addend: 0x0, symName: __Z11printErrorsNSt3__112basic_stringIcNS_11char_traitsIcEENS_9allocatorIcEEEEi, symObjAddr: 0x0, symBinAddr: 0x100002A00, symSize: 0x244 }
  - { offsetInCU: 0xF295, offset: 0xF295, size: 0x8, addend: 0x0, symName: __ZNSt3__113basic_ostreamIcNS_11char_traitsIcEEElsB7v160006EPFRS3_S4_E, symObjAddr: 0x2D8, symBinAddr: 0x100002CD8, symSize: 0x2C }
  - { offsetInCU: 0xF2C9, offset: 0xF2C9, size: 0x8, addend: 0x0, symName: _main, symObjAddr: 0x35C, symBinAddr: 0x100002D5C, symSize: 0xB08 }
  - { offsetInCU: 0xF3D9, offset: 0xF3D9, size: 0x8, addend: 0x0, symName: __ZNSt3__112basic_stringIcNS_11char_traitsIcEENS_9allocatorIcEEEC1B7v160006IDnEEPKc, symObjAddr: 0xE64, symBinAddr: 0x100003864, symSize: 0x34 }
  - { offsetInCU: 0xF54A, offset: 0xF54A, size: 0x8, addend: 0x0, symName: __ZN5BHeapINSt3__112basic_stringIcNS0_11char_traitsIcEENS0_9allocatorIcEEEEEC1EPS6_i, symObjAddr: 0xEA4, symBinAddr: 0x1000038A4, symSize: 0x3C }
  - { offsetInCU: 0xF590, offset: 0xF590, size: 0x8, addend: 0x0, symName: __ZN5BHeapINSt3__112basic_stringIcNS0_11char_traitsIcEENS0_9allocatorIcEEEEEC1Ev, symObjAddr: 0xEE0, symBinAddr: 0x1000038E0, symSize: 0x2C }
  - { offsetInCU: 0xF5BA, offset: 0xF5BA, size: 0x8, addend: 0x0, symName: __ZN5BHeapINSt3__112basic_stringIcNS0_11char_traitsIcEENS0_9allocatorIcEEEEE8printKeyEv, symObjAddr: 0xF0C, symBinAddr: 0x10000390C, symSize: 0x130 }
  - { offsetInCU: 0xF5EE, offset: 0xF5EE, size: 0x8, addend: 0x0, symName: __ZN5BHeapINSt3__112basic_stringIcNS0_11char_traitsIcEENS0_9allocatorIcEEEEE10extractMinEv, symObjAddr: 0x103C, symBinAddr: 0x100003A3C, symSize: 0x258 }
  - { offsetInCU: 0xF63F, offset: 0xF63F, size: 0x8, addend: 0x0, symName: __ZN5BHeapINSt3__112basic_stringIcNS0_11char_traitsIcEENS0_9allocatorIcEEEEE6insertES6_, symObjAddr: 0x1294, symBinAddr: 0x100003C94, symSize: 0x230 }
  - { offsetInCU: 0xF682, offset: 0xF682, size: 0x8, addend: 0x0, symName: __ZN5BHeapINSt3__112basic_stringIcNS0_11char_traitsIcEENS0_9allocatorIcEEEEE5mergeERS7_, symObjAddr: 0x14C4, symBinAddr: 0x100003EC4, symSize: 0x1B0 }
  - { offsetInCU: 0xF6D2, offset: 0xF6D2, size: 0x8, addend: 0x0, symName: __ZN5BHeapINSt3__112basic_stringIcNS0_11char_traitsIcEENS0_9allocatorIcEEEEE7peekKeyEv, symObjAddr: 0x1674, symBinAddr: 0x100004074, symSize: 0xA8 }
  - { offsetInCU: 0xF826, offset: 0xF826, size: 0x8, addend: 0x0, symName: __ZN5BHeapIiEC1Ev, symObjAddr: 0x171C, symBinAddr: 0x10000411C, symSize: 0x2C }
  - { offsetInCU: 0xF850, offset: 0xF850, size: 0x8, addend: 0x0, symName: __ZN5BHeapIiE6insertEi, symObjAddr: 0x1748, symBinAddr: 0x100004148, symSize: 0x178 }
  - { offsetInCU: 0xF892, offset: 0xF892, size: 0x8, addend: 0x0, symName: __ZN5BHeapIiE7peekKeyEv, symObjAddr: 0x18C0, symBinAddr: 0x1000042C0, symSize: 0x9C }
  - { offsetInCU: 0xF8B8, offset: 0xF8B8, size: 0x8, addend: 0x0, symName: __ZN5BHeapIiE10extractMinEv, symObjAddr: 0x195C, symBinAddr: 0x10000435C, symSize: 0x1E0 }
  - { offsetInCU: 0xF908, offset: 0xF908, size: 0x8, addend: 0x0, symName: __ZN5BHeapIiE5mergeERS0_, symObjAddr: 0x1B3C, symBinAddr: 0x10000453C, symSize: 0x160 }
  - { offsetInCU: 0xF958, offset: 0xF958, size: 0x8, addend: 0x0, symName: __ZNKSt3__112basic_stringIcNS_11char_traitsIcEENS_9allocatorIcEEE4dataB7v160006Ev, symObjAddr: 0x1E90, symBinAddr: 0x100004890, symSize: 0x28 }
  - { offsetInCU: 0xF97E, offset: 0xF97E, size: 0x8, addend: 0x0, symName: __ZNKSt3__112basic_stringIcNS_11char_traitsIcEENS_9allocatorIcEEE4sizeB7v160006Ev, symObjAddr: 0x1EB8, symBinAddr: 0x1000048B8, symSize: 0x54 }
  - { offsetInCU: 0xF9C2, offset: 0xF9C2, size: 0x8, addend: 0x0, symName: __ZNKSt3__113basic_ostreamIcNS_11char_traitsIcEEE6sentrycvbB7v160006Ev, symObjAddr: 0x1F0C, symBinAddr: 0x10000490C, symSize: 0x1C }
  - { offsetInCU: 0xF9E8, offset: 0xF9E8, size: 0x8, addend: 0x0, symName: __ZNSt3__119ostreambuf_iteratorIcNS_11char_traitsIcEEEC1B7v160006ERNS_13basic_ostreamIcS2_EE, symObjAddr: 0x2170, symBinAddr: 0x100004B70, symSize: 0x34 }
  - { offsetInCU: 0xFA20, offset: 0xFA20, size: 0x8, addend: 0x0, symName: __ZNKSt3__18ios_base5flagsB7v160006Ev, symObjAddr: 0x21A4, symBinAddr: 0x100004BA4, symSize: 0x18 }
  - { offsetInCU: 0xFA48, offset: 0xFA48, size: 0x8, addend: 0x0, symName: __ZNKSt3__19basic_iosIcNS_11char_traitsIcEEE4fillB7v160006Ev, symObjAddr: 0x21BC, symBinAddr: 0x100004BBC, symSize: 0x64 }
  - { offsetInCU: 0xFA6F, offset: 0xFA6F, size: 0x8, addend: 0x0, symName: __ZNKSt3__119ostreambuf_iteratorIcNS_11char_traitsIcEEE6failedB7v160006Ev, symObjAddr: 0x2220, symBinAddr: 0x100004C20, symSize: 0x24 }
  - { offsetInCU: 0xFA95, offset: 0xFA95, size: 0x8, addend: 0x0, symName: __ZNSt3__19basic_iosIcNS_11char_traitsIcEEE8setstateB7v160006Ej, symObjAddr: 0x2244, symBinAddr: 0x100004C44, symSize: 0x2C }
  - { offsetInCU: 0xFACA, offset: 0xFACA, size: 0x8, addend: 0x0, symName: __ZNKSt3__18ios_base5widthB7v160006Ev, symObjAddr: 0x2270, symBinAddr: 0x100004C70, symSize: 0x18 }
  - { offsetInCU: 0xFAF2, offset: 0xFAF2, size: 0x8, addend: 0x0, symName: __ZNSt3__115basic_streambufIcNS_11char_traitsIcEEE5sputnB7v160006EPKcl, symObjAddr: 0x2288, symBinAddr: 0x100004C88, symSize: 0x3C }
  - { offsetInCU: 0xFB34, offset: 0xFB34, size: 0x8, addend: 0x0, symName: __ZNSt3__112basic_stringIcNS_11char_traitsIcEENS_9allocatorIcEEEC1B7v160006Emc, symObjAddr: 0x22C4, symBinAddr: 0x100004CC4, symSize: 0x3C }
  - { offsetInCU: 0xFB7C, offset: 0xFB7C, size: 0x8, addend: 0x0, symName: __ZNSt3__18ios_base5widthB7v160006El, symObjAddr: 0x2300, symBinAddr: 0x100004D00, symSize: 0x2C }
  - { offsetInCU: 0xFBC2, offset: 0xFBC2, size: 0x8, addend: 0x0, symName: __ZNSt3__112basic_stringIcNS_11char_traitsIcEENS_9allocatorIcEEEC2B7v160006Emc, symObjAddr: 0x232C, symBinAddr: 0x100004D2C, symSize: 0x54 }
  - { offsetInCU: 0xFC0F, offset: 0xFC0F, size: 0x8, addend: 0x0, symName: __ZNSt3__117__compressed_pairINS_12basic_stringIcNS_11char_traitsIcEENS_9allocatorIcEEE5__repES5_EC1B7v160006INS_18__default_init_tagESA_EEOT_OT0_, symObjAddr: 0x2380, symBinAddr: 0x100004D80, symSize: 0x3C }
  - { offsetInCU: 0xFC67, offset: 0xFC67, size: 0x8, addend: 0x0, symName: __ZNSt3__117__compressed_pairINS_12basic_stringIcNS_11char_traitsIcEENS_9allocatorIcEEE5__repES5_EC2B7v160006INS_18__default_init_tagESA_EEOT_OT0_, symObjAddr: 0x23CC, symBinAddr: 0x100004DCC, symSize: 0x3C }
  - { offsetInCU: 0xFCBF, offset: 0xFCBF, size: 0x8, addend: 0x0, symName: __ZNSt3__122__compressed_pair_elemINS_12basic_stringIcNS_11char_traitsIcEENS_9allocatorIcEEE5__repELi0ELb0EEC2B7v160006ENS_18__default_init_tagE, symObjAddr: 0x2408, symBinAddr: 0x100004E08, symSize: 0x14 }
  - { offsetInCU: 0xFCF3, offset: 0xFCF3, size: 0x8, addend: 0x0, symName: __ZNSt3__122__compressed_pair_elemINS_9allocatorIcEELi1ELb1EEC2B7v160006ENS_18__default_init_tagE, symObjAddr: 0x241C, symBinAddr: 0x100004E1C, symSize: 0x2C }
  - { offsetInCU: 0xFD27, offset: 0xFD27, size: 0x8, addend: 0x0, symName: __ZNSt3__19allocatorIcEC2B7v160006Ev, symObjAddr: 0x2448, symBinAddr: 0x100004E48, symSize: 0x2C }
  - { offsetInCU: 0xFD51, offset: 0xFD51, size: 0x8, addend: 0x0, symName: __ZNSt3__116__non_trivial_ifILb1ENS_9allocatorIcEEEC2B7v160006Ev, symObjAddr: 0x2474, symBinAddr: 0x100004E74, symSize: 0x14 }
  - { offsetInCU: 0xFD7B, offset: 0xFD7B, size: 0x8, addend: 0x0, symName: __ZNSt3__119ostreambuf_iteratorIcNS_11char_traitsIcEEEC2B7v160006ERNS_13basic_ostreamIcS2_EE, symObjAddr: 0x2488, symBinAddr: 0x100004E88, symSize: 0x68 }
  - { offsetInCU: 0xFDB3, offset: 0xFDB3, size: 0x8, addend: 0x0, symName: __ZNKSt3__19basic_iosIcNS_11char_traitsIcEEE5rdbufB7v160006Ev, symObjAddr: 0x24F0, symBinAddr: 0x100004EF0, symSize: 0x24 }
  - { offsetInCU: 0xFDDA, offset: 0xFDDA, size: 0x8, addend: 0x0, symName: __ZNKSt3__18ios_base5rdbufB7v160006Ev, symObjAddr: 0x2514, symBinAddr: 0x100004F14, symSize: 0x18 }
  - { offsetInCU: 0xFE00, offset: 0xFE00, size: 0x8, addend: 0x0, symName: __ZNSt3__111char_traitsIcE11eq_int_typeEii, symObjAddr: 0x252C, symBinAddr: 0x100004F2C, symSize: 0x28 }
  - { offsetInCU: 0xFE31, offset: 0xFE31, size: 0x8, addend: 0x0, symName: __ZNSt3__111char_traitsIcE3eofEv, symObjAddr: 0x2554, symBinAddr: 0x100004F54, symSize: 0x8 }
  - { offsetInCU: 0xFE45, offset: 0xFE45, size: 0x8, addend: 0x0, symName: __ZNKSt3__19basic_iosIcNS_11char_traitsIcEEE5widenB7v160006Ec, symObjAddr: 0x255C, symBinAddr: 0x100004F5C, symSize: 0x8C }
  - { offsetInCU: 0xFEB2, offset: 0xFEB2, size: 0x8, addend: 0x0, symName: __ZNKSt3__15ctypeIcE5widenB7v160006Ec, symObjAddr: 0x2614, symBinAddr: 0x100005014, symSize: 0x38 }
  - { offsetInCU: 0xFEE7, offset: 0xFEE7, size: 0x8, addend: 0x0, symName: __ZNSt3__18ios_base8setstateB7v160006Ej, symObjAddr: 0x264C, symBinAddr: 0x10000504C, symSize: 0x34 }
  - { offsetInCU: 0xFF1D, offset: 0xFF1D, size: 0x8, addend: 0x0, symName: __ZNKSt3__112basic_stringIcNS_11char_traitsIcEENS_9allocatorIcEEE13__get_pointerB7v160006Ev, symObjAddr: 0x2694, symBinAddr: 0x100005094, symSize: 0x54 }
  - { offsetInCU: 0xFF43, offset: 0xFF43, size: 0x8, addend: 0x0, symName: __ZNKSt3__112basic_stringIcNS_11char_traitsIcEENS_9allocatorIcEEE9__is_longB7v160006Ev, symObjAddr: 0x26E8, symBinAddr: 0x1000050E8, symSize: 0x74 }
  - { offsetInCU: 0xFF69, offset: 0xFF69, size: 0x8, addend: 0x0, symName: __ZNKSt3__112basic_stringIcNS_11char_traitsIcEENS_9allocatorIcEEE18__get_long_pointerB7v160006Ev, symObjAddr: 0x275C, symBinAddr: 0x10000515C, symSize: 0x28 }
  - { offsetInCU: 0xFF8F, offset: 0xFF8F, size: 0x8, addend: 0x0, symName: __ZNKSt3__112basic_stringIcNS_11char_traitsIcEENS_9allocatorIcEEE19__get_short_pointerB7v160006Ev, symObjAddr: 0x2784, symBinAddr: 0x100005184, symSize: 0x28 }
  - { offsetInCU: 0xFFB5, offset: 0xFFB5, size: 0x8, addend: 0x0, symName: __ZNKSt3__117__compressed_pairINS_12basic_stringIcNS_11char_traitsIcEENS_9allocatorIcEEE5__repES5_E5firstB7v160006Ev, symObjAddr: 0x27B8, symBinAddr: 0x1000051B8, symSize: 0x24 }
  - { offsetInCU: 0xFFDB, offset: 0xFFDB, size: 0x8, addend: 0x0, symName: __ZNKSt3__122__compressed_pair_elemINS_12basic_stringIcNS_11char_traitsIcEENS_9allocatorIcEEE5__repELi0ELb0EE5__getB7v160006Ev, symObjAddr: 0x27DC, symBinAddr: 0x1000051DC, symSize: 0x14 }
  - { offsetInCU: 0x10001, offset: 0x10001, size: 0x8, addend: 0x0, symName: __ZNSt3__114pointer_traitsIPKcE10pointer_toB7v160006ERS1_, symObjAddr: 0x27F0, symBinAddr: 0x1000051F0, symSize: 0x14 }
  - { offsetInCU: 0x10024, offset: 0x10024, size: 0x8, addend: 0x0, symName: __ZNKSt3__112basic_stringIcNS_11char_traitsIcEENS_9allocatorIcEEE15__get_long_sizeB7v160006Ev, symObjAddr: 0x2804, symBinAddr: 0x100005204, symSize: 0x28 }
  - { offsetInCU: 0x1004A, offset: 0x1004A, size: 0x8, addend: 0x0, symName: __ZNKSt3__112basic_stringIcNS_11char_traitsIcEENS_9allocatorIcEEE16__get_short_sizeB7v160006Ev, symObjAddr: 0x282C, symBinAddr: 0x10000522C, symSize: 0x34 }
  - { offsetInCU: 0x10070, offset: 0x10070, size: 0x8, addend: 0x0, symName: __ZNSt3__111char_traitsIcE6lengthEPKc, symObjAddr: 0x2860, symBinAddr: 0x100005260, symSize: 0x48 }
  - { offsetInCU: 0x10093, offset: 0x10093, size: 0x8, addend: 0x0, symName: __ZNSt3__112basic_stringIcNS_11char_traitsIcEENS_9allocatorIcEEEC2B7v160006IDnEEPKc, symObjAddr: 0x28CC, symBinAddr: 0x1000052CC, symSize: 0x60 }
  - { offsetInCU: 0x100D1, offset: 0x100D1, size: 0x8, addend: 0x0, symName: __ZN5BHeapINSt3__112basic_stringIcNS0_11char_traitsIcEENS0_9allocatorIcEEEEEC2EPS6_i, symObjAddr: 0x292C, symBinAddr: 0x10000532C, symSize: 0xDC }
  - { offsetInCU: 0x1012B, offset: 0x1012B, size: 0x8, addend: 0x0, symName: __ZN5BHeapINSt3__112basic_stringIcNS0_11char_traitsIcEENS0_9allocatorIcEEEEE11consolidateEv, symObjAddr: 0x2A08, symBinAddr: 0x100005408, symSize: 0x510 }
  - { offsetInCU: 0x101E1, offset: 0x101E1, size: 0x8, addend: 0x0, symName: __Z4log2B7v160006IiENSt3__19enable_ifIXsr3std11is_integralIT_EE5valueEdE4typeES2_, symObjAddr: 0x2F18, symBinAddr: 0x100005918, symSize: 0x30 }
  - { offsetInCU: 0x10219, offset: 0x10219, size: 0x8, addend: 0x0, symName: __ZNSt3__16vectorIP8HeapNodeINS_12basic_stringIcNS_11char_traitsIcEENS_9allocatorIcEEEEENS5_IS9_EEEC1EmRKS9_, symObjAddr: 0x2F48, symBinAddr: 0x100005948, symSize: 0x3C }
  - { offsetInCU: 0x10263, offset: 0x10263, size: 0x8, addend: 0x0, symName: __ZN8HeapNodeINSt3__112basic_stringIcNS0_11char_traitsIcEENS0_9allocatorIcEEEEE15getRightSiblingEv, symObjAddr: 0x2F84, symBinAddr: 0x100005984, symSize: 0x18 }
  - { offsetInCU: 0x10289, offset: 0x10289, size: 0x8, addend: 0x0, symName: __ZN8HeapNodeINSt3__112basic_stringIcNS0_11char_traitsIcEENS0_9allocatorIcEEEEE9getDegreeEv, symObjAddr: 0x2F9C, symBinAddr: 0x10000599C, symSize: 0x18 }
  - { offsetInCU: 0x102AF, offset: 0x102AF, size: 0x8, addend: 0x0, symName: __ZNSt3__16vectorIP8HeapNodeINS_12basic_stringIcNS_11char_traitsIcEENS_9allocatorIcEEEEENS5_IS9_EEEixB7v160006Em, symObjAddr: 0x2FB4, symBinAddr: 0x1000059B4, symSize: 0x24 }
  - { offsetInCU: 0x102E6, offset: 0x102E6, size: 0x8, addend: 0x0, symName: __ZN8HeapNodeINSt3__112basic_stringIcNS0_11char_traitsIcEENS0_9allocatorIcEEEEE6getKeyEv, symObjAddr: 0x3008, symBinAddr: 0x100005A08, symSize: 0x38 }
  - { offsetInCU: 0x1030C, offset: 0x1030C, size: 0x8, addend: 0x0, symName: __ZN8HeapNodeINSt3__112basic_stringIcNS0_11char_traitsIcEENS0_9allocatorIcEEEEE8addChildEPS7_, symObjAddr: 0x307C, symBinAddr: 0x100005A7C, symSize: 0x32C }
  - { offsetInCU: 0x10340, offset: 0x10340, size: 0x8, addend: 0x0, symName: __ZN8HeapNodeINSt3__112basic_stringIcNS0_11char_traitsIcEENS0_9allocatorIcEEEEE9setDegreeEi, symObjAddr: 0x33A8, symBinAddr: 0x100005DA8, symSize: 0x20 }
  - { offsetInCU: 0x10374, offset: 0x10374, size: 0x8, addend: 0x0, symName: __ZN8HeapNodeINSt3__112basic_stringIcNS0_11char_traitsIcEENS0_9allocatorIcEEEEE14setLeftSiblingEPS7_, symObjAddr: 0x33C8, symBinAddr: 0x100005DC8, symSize: 0x48 }
  - { offsetInCU: 0x103A8, offset: 0x103A8, size: 0x8, addend: 0x0, symName: __ZN8HeapNodeINSt3__112basic_stringIcNS0_11char_traitsIcEENS0_9allocatorIcEEEEE15setRightSiblingEPS7_, symObjAddr: 0x3410, symBinAddr: 0x100005E10, symSize: 0x48 }
  - { offsetInCU: 0x103DC, offset: 0x103DC, size: 0x8, addend: 0x0, symName: __ZNSt3__16vectorIP8HeapNodeINS_12basic_stringIcNS_11char_traitsIcEENS_9allocatorIcEEEEENS5_IS9_EEED1B7v160006Ev, symObjAddr: 0x3490, symBinAddr: 0x100005E90, symSize: 0x2C }
  - { offsetInCU: 0x10406, offset: 0x10406, size: 0x8, addend: 0x0, symName: __ZNSt3__16vectorIP8HeapNodeINS_12basic_stringIcNS_11char_traitsIcEENS_9allocatorIcEEEEENS5_IS9_EEEC2EmRKS9_, symObjAddr: 0x34BC, symBinAddr: 0x100005EBC, symSize: 0xF0 }
  - { offsetInCU: 0x1046A, offset: 0x1046A, size: 0x8, addend: 0x0, symName: __ZNSt3__117__compressed_pairIPP8HeapNodeINS_12basic_stringIcNS_11char_traitsIcEENS_9allocatorIcEEEEENS5_IS9_EEEC1B7v160006IDnNS_18__default_init_tagEEEOT_OT0_, symObjAddr: 0x35AC, symBinAddr: 0x100005FAC, symSize: 0x3C }
  - { offsetInCU: 0x104C2, offset: 0x104C2, size: 0x8, addend: 0x0, symName: __ZNSt3__16vectorIP8HeapNodeINS_12basic_stringIcNS_11char_traitsIcEENS_9allocatorIcEEEEENS5_IS9_EEE16__destroy_vectorC1ERSB_, symObjAddr: 0x3628, symBinAddr: 0x100006028, symSize: 0x34 }
  - { offsetInCU: 0x104FB, offset: 0x104FB, size: 0x8, addend: 0x0, symName: __ZNSt3__16vectorIP8HeapNodeINS_12basic_stringIcNS_11char_traitsIcEENS_9allocatorIcEEEEENS5_IS9_EEE11__vallocateB7v160006Em, symObjAddr: 0x366C, symBinAddr: 0x10000606C, symSize: 0xAC }
  - { offsetInCU: 0x1053F, offset: 0x1053F, size: 0x8, addend: 0x0, symName: __ZNSt3__16vectorIP8HeapNodeINS_12basic_stringIcNS_11char_traitsIcEENS_9allocatorIcEEEEENS5_IS9_EEE18__construct_at_endEmRKS9_, symObjAddr: 0x3718, symBinAddr: 0x100006118, symSize: 0xD8 }
  - { offsetInCU: 0x105C0, offset: 0x105C0, size: 0x8, addend: 0x0, symName: __ZNSt3__128__exception_guard_exceptionsINS_6vectorIP8HeapNodeINS_12basic_stringIcNS_11char_traitsIcEENS_9allocatorIcEEEEENS6_ISA_EEE16__destroy_vectorEE10__completeB7v160006Ev, symObjAddr: 0x37F0, symBinAddr: 0x1000061F0, symSize: 0x1C }
  - { offsetInCU: 0x105E6, offset: 0x105E6, size: 0x8, addend: 0x0, symName: __ZNSt3__128__exception_guard_exceptionsINS_6vectorIP8HeapNodeINS_12basic_stringIcNS_11char_traitsIcEENS_9allocatorIcEEEEENS6_ISA_EEE16__destroy_vectorEED1B7v160006Ev, symObjAddr: 0x380C, symBinAddr: 0x10000620C, symSize: 0x2C }
  - { offsetInCU: 0x10610, offset: 0x10610, size: 0x8, addend: 0x0, symName: __ZNSt3__117__compressed_pairIPP8HeapNodeINS_12basic_stringIcNS_11char_traitsIcEENS_9allocatorIcEEEEENS5_IS9_EEEC2B7v160006IDnNS_18__default_init_tagEEEOT_OT0_, symObjAddr: 0x3838, symBinAddr: 0x100006238, symSize: 0x40 }
  - { offsetInCU: 0x10668, offset: 0x10668, size: 0x8, addend: 0x0, symName: __ZNSt3__122__compressed_pair_elemIPP8HeapNodeINS_12basic_stringIcNS_11char_traitsIcEENS_9allocatorIcEEEEELi0ELb0EEC2B7v160006IDnvEEOT_, symObjAddr: 0x3878, symBinAddr: 0x100006278, symSize: 0x1C }
  - { offsetInCU: 0x106AA, offset: 0x106AA, size: 0x8, addend: 0x0, symName: __ZNSt3__122__compressed_pair_elemINS_9allocatorIP8HeapNodeINS_12basic_stringIcNS_11char_traitsIcEENS1_IcEEEEEEELi1ELb1EEC2B7v160006ENS_18__default_init_tagE, symObjAddr: 0x3894, symBinAddr: 0x100006294, symSize: 0x2C }
  - { offsetInCU: 0x106DE, offset: 0x106DE, size: 0x8, addend: 0x0, symName: __ZNSt3__19allocatorIP8HeapNodeINS_12basic_stringIcNS_11char_traitsIcEENS0_IcEEEEEEC2B7v160006Ev, symObjAddr: 0x38C0, symBinAddr: 0x1000062C0, symSize: 0x2C }
  - { offsetInCU: 0x10708, offset: 0x10708, size: 0x8, addend: 0x0, symName: __ZNSt3__116__non_trivial_ifILb1ENS_9allocatorIP8HeapNodeINS_12basic_stringIcNS_11char_traitsIcEENS1_IcEEEEEEEEC2B7v160006Ev, symObjAddr: 0x38EC, symBinAddr: 0x1000062EC, symSize: 0x14 }
  - { offsetInCU: 0x10732, offset: 0x10732, size: 0x8, addend: 0x0, symName: __ZNSt3__128__exception_guard_exceptionsINS_6vectorIP8HeapNodeINS_12basic_stringIcNS_11char_traitsIcEENS_9allocatorIcEEEEENS6_ISA_EEE16__destroy_vectorEEC1B7v160006ESD_, symObjAddr: 0x3900, symBinAddr: 0x100006300, symSize: 0x34 }
  - { offsetInCU: 0x1076A, offset: 0x1076A, size: 0x8, addend: 0x0, symName: __ZNSt3__128__exception_guard_exceptionsINS_6vectorIP8HeapNodeINS_12basic_stringIcNS_11char_traitsIcEENS_9allocatorIcEEEEENS6_ISA_EEE16__destroy_vectorEEC2B7v160006ESD_, symObjAddr: 0x3934, symBinAddr: 0x100006334, symSize: 0x24 }
  - { offsetInCU: 0x107A2, offset: 0x107A2, size: 0x8, addend: 0x0, symName: __ZNSt3__16vectorIP8HeapNodeINS_12basic_stringIcNS_11char_traitsIcEENS_9allocatorIcEEEEENS5_IS9_EEE16__destroy_vectorC2ERSB_, symObjAddr: 0x3958, symBinAddr: 0x100006358, symSize: 0x20 }
  - { offsetInCU: 0x107DB, offset: 0x107DB, size: 0x8, addend: 0x0, symName: __ZNKSt3__16vectorIP8HeapNodeINS_12basic_stringIcNS_11char_traitsIcEENS_9allocatorIcEEEEENS5_IS9_EEE8max_sizeEv, symObjAddr: 0x3978, symBinAddr: 0x100006378, symSize: 0x74 }
  - { offsetInCU: 0x10802, offset: 0x10802, size: 0x8, addend: 0x0, symName: __ZNKSt3__16vectorIP8HeapNodeINS_12basic_stringIcNS_11char_traitsIcEENS_9allocatorIcEEEEENS5_IS9_EEE20__throw_length_errorB7v160006Ev, symObjAddr: 0x39EC, symBinAddr: 0x1000063EC, symSize: 0x1C }
  - { offsetInCU: 0x10828, offset: 0x10828, size: 0x8, addend: 0x0, symName: __ZNSt3__16vectorIP8HeapNodeINS_12basic_stringIcNS_11char_traitsIcEENS_9allocatorIcEEEEENS5_IS9_EEE7__allocB7v160006Ev, symObjAddr: 0x3A48, symBinAddr: 0x100006448, symSize: 0x28 }
  - { offsetInCU: 0x1084E, offset: 0x1084E, size: 0x8, addend: 0x0, symName: __ZNSt3__16vectorIP8HeapNodeINS_12basic_stringIcNS_11char_traitsIcEENS_9allocatorIcEEEEENS5_IS9_EEE9__end_capB7v160006Ev, symObjAddr: 0x3A70, symBinAddr: 0x100006470, symSize: 0x28 }
  - { offsetInCU: 0x10874, offset: 0x10874, size: 0x8, addend: 0x0, symName: __ZNKSt3__16vectorIP8HeapNodeINS_12basic_stringIcNS_11char_traitsIcEENS_9allocatorIcEEEEENS5_IS9_EEE14__annotate_newB7v160006Em, symObjAddr: 0x3A98, symBinAddr: 0x100006498, symSize: 0xAC }
  - { offsetInCU: 0x108B3, offset: 0x108B3, size: 0x8, addend: 0x0, symName: __ZNSt3__116allocator_traitsINS_9allocatorIP8HeapNodeINS_12basic_stringIcNS_11char_traitsIcEENS1_IcEEEEEEEE8max_sizeB7v160006ISA_vEEmRKSA_, symObjAddr: 0x3B70, symBinAddr: 0x100006570, symSize: 0x24 }
  - { offsetInCU: 0x108E1, offset: 0x108E1, size: 0x8, addend: 0x0, symName: __ZNKSt3__16vectorIP8HeapNodeINS_12basic_stringIcNS_11char_traitsIcEENS_9allocatorIcEEEEENS5_IS9_EEE7__allocB7v160006Ev, symObjAddr: 0x3B94, symBinAddr: 0x100006594, symSize: 0x28 }
  - { offsetInCU: 0x10907, offset: 0x10907, size: 0x8, addend: 0x0, symName: __ZNSt3__114numeric_limitsIlE3maxB7v160006Ev, symObjAddr: 0x3BBC, symBinAddr: 0x1000065BC, symSize: 0x14 }
  - { offsetInCU: 0x1092F, offset: 0x1092F, size: 0x8, addend: 0x0, symName: __ZNKSt3__16__lessImmEclB7v160006ERKmS3_, symObjAddr: 0x3C24, symBinAddr: 0x100006624, symSize: 0x34 }
  - { offsetInCU: 0x10971, offset: 0x10971, size: 0x8, addend: 0x0, symName: __ZNKSt3__19allocatorIP8HeapNodeINS_12basic_stringIcNS_11char_traitsIcEENS0_IcEEEEEE8max_sizeB7v160006Ev, symObjAddr: 0x3C58, symBinAddr: 0x100006658, symSize: 0x14 }
  - { offsetInCU: 0x10997, offset: 0x10997, size: 0x8, addend: 0x0, symName: __ZNKSt3__117__compressed_pairIPP8HeapNodeINS_12basic_stringIcNS_11char_traitsIcEENS_9allocatorIcEEEEENS5_IS9_EEE6secondB7v160006Ev, symObjAddr: 0x3C6C, symBinAddr: 0x10000666C, symSize: 0x24 }
  - { offsetInCU: 0x109BD, offset: 0x109BD, size: 0x8, addend: 0x0, symName: __ZNKSt3__122__compressed_pair_elemINS_9allocatorIP8HeapNodeINS_12basic_stringIcNS_11char_traitsIcEENS1_IcEEEEEEELi1ELb1EE5__getB7v160006Ev, symObjAddr: 0x3C90, symBinAddr: 0x100006690, symSize: 0x14 }
  - { offsetInCU: 0x109E3, offset: 0x109E3, size: 0x8, addend: 0x0, symName: __ZNSt3__123__libcpp_numeric_limitsIlLb1EE3maxB7v160006Ev, symObjAddr: 0x3CA4, symBinAddr: 0x1000066A4, symSize: 0x8 }
  - { offsetInCU: 0x109F7, offset: 0x109F7, size: 0x8, addend: 0x0, symName: __ZNSt12length_errorC1B7v160006EPKc, symObjAddr: 0x3D10, symBinAddr: 0x100006710, symSize: 0x34 }
  - { offsetInCU: 0x10A2F, offset: 0x10A2F, size: 0x8, addend: 0x0, symName: __ZNSt12length_errorC2B7v160006EPKc, symObjAddr: 0x3D44, symBinAddr: 0x100006744, symSize: 0x4C }
  - { offsetInCU: 0x10A67, offset: 0x10A67, size: 0x8, addend: 0x0, symName: __ZNSt3__19allocatorIP8HeapNodeINS_12basic_stringIcNS_11char_traitsIcEENS0_IcEEEEEE8allocateB7v160006Em, symObjAddr: 0x3D90, symBinAddr: 0x100006790, symSize: 0x84 }
  - { offsetInCU: 0x10A9B, offset: 0x10A9B, size: 0x8, addend: 0x0, symName: __ZNSt3__117__compressed_pairIPP8HeapNodeINS_12basic_stringIcNS_11char_traitsIcEENS_9allocatorIcEEEEENS5_IS9_EEE6secondB7v160006Ev, symObjAddr: 0x3E94, symBinAddr: 0x100006894, symSize: 0x24 }
  - { offsetInCU: 0x10AC1, offset: 0x10AC1, size: 0x8, addend: 0x0, symName: __ZNSt3__122__compressed_pair_elemINS_9allocatorIP8HeapNodeINS_12basic_stringIcNS_11char_traitsIcEENS1_IcEEEEEEELi1ELb1EE5__getB7v160006Ev, symObjAddr: 0x3EB8, symBinAddr: 0x1000068B8, symSize: 0x14 }
  - { offsetInCU: 0x10AE7, offset: 0x10AE7, size: 0x8, addend: 0x0, symName: __ZNSt3__117__compressed_pairIPP8HeapNodeINS_12basic_stringIcNS_11char_traitsIcEENS_9allocatorIcEEEEENS5_IS9_EEE5firstB7v160006Ev, symObjAddr: 0x3ECC, symBinAddr: 0x1000068CC, symSize: 0x24 }
  - { offsetInCU: 0x10B0D, offset: 0x10B0D, size: 0x8, addend: 0x0, symName: __ZNSt3__122__compressed_pair_elemIPP8HeapNodeINS_12basic_stringIcNS_11char_traitsIcEENS_9allocatorIcEEEEELi0ELb0EE5__getB7v160006Ev, symObjAddr: 0x3EF0, symBinAddr: 0x1000068F0, symSize: 0x14 }
  - { offsetInCU: 0x10B33, offset: 0x10B33, size: 0x8, addend: 0x0, symName: __ZNKSt3__16vectorIP8HeapNodeINS_12basic_stringIcNS_11char_traitsIcEENS_9allocatorIcEEEEENS5_IS9_EEE31__annotate_contiguous_containerB7v160006EPKvSD_SD_SD_, symObjAddr: 0x3F04, symBinAddr: 0x100006904, symSize: 0x20 }
  - { offsetInCU: 0x10B85, offset: 0x10B85, size: 0x8, addend: 0x0, symName: __ZNKSt3__16vectorIP8HeapNodeINS_12basic_stringIcNS_11char_traitsIcEENS_9allocatorIcEEEEENS5_IS9_EEE4dataB7v160006Ev, symObjAddr: 0x3F24, symBinAddr: 0x100006924, symSize: 0x28 }
  - { offsetInCU: 0x10BAB, offset: 0x10BAB, size: 0x8, addend: 0x0, symName: __ZNKSt3__16vectorIP8HeapNodeINS_12basic_stringIcNS_11char_traitsIcEENS_9allocatorIcEEEEENS5_IS9_EEE8capacityB7v160006Ev, symObjAddr: 0x3F4C, symBinAddr: 0x10000694C, symSize: 0x40 }
  - { offsetInCU: 0x10BD1, offset: 0x10BD1, size: 0x8, addend: 0x0, symName: __ZNKSt3__16vectorIP8HeapNodeINS_12basic_stringIcNS_11char_traitsIcEENS_9allocatorIcEEEEENS5_IS9_EEE9__end_capB7v160006Ev, symObjAddr: 0x3FA0, symBinAddr: 0x1000069A0, symSize: 0x28 }
  - { offsetInCU: 0x10BF7, offset: 0x10BF7, size: 0x8, addend: 0x0, symName: __ZNKSt3__117__compressed_pairIPP8HeapNodeINS_12basic_stringIcNS_11char_traitsIcEENS_9allocatorIcEEEEENS5_IS9_EEE5firstB7v160006Ev, symObjAddr: 0x3FC8, symBinAddr: 0x1000069C8, symSize: 0x24 }
  - { offsetInCU: 0x10C1D, offset: 0x10C1D, size: 0x8, addend: 0x0, symName: __ZNKSt3__122__compressed_pair_elemIPP8HeapNodeINS_12basic_stringIcNS_11char_traitsIcEENS_9allocatorIcEEEEELi0ELb0EE5__getB7v160006Ev, symObjAddr: 0x3FEC, symBinAddr: 0x1000069EC, symSize: 0x14 }
  - { offsetInCU: 0x10C5C, offset: 0x10C5C, size: 0x8, addend: 0x0, symName: __ZNSt3__16vectorIP8HeapNodeINS_12basic_stringIcNS_11char_traitsIcEENS_9allocatorIcEEEEENS5_IS9_EEE21_ConstructTransactionC1B7v160006ERSB_m, symObjAddr: 0x4000, symBinAddr: 0x100006A00, symSize: 0x3C }
  - { offsetInCU: 0x10CA4, offset: 0x10CA4, size: 0x8, addend: 0x0, symName: __ZNSt3__116allocator_traitsINS_9allocatorIP8HeapNodeINS_12basic_stringIcNS_11char_traitsIcEENS1_IcEEEEEEEE9constructB7v160006IS9_JRKS9_EvEEvRSA_PT_DpOT0_, symObjAddr: 0x403C, symBinAddr: 0x100006A3C, symSize: 0x34 }
  - { offsetInCU: 0x10CFB, offset: 0x10CFB, size: 0x8, addend: 0x0, symName: __ZNSt3__16vectorIP8HeapNodeINS_12basic_stringIcNS_11char_traitsIcEENS_9allocatorIcEEEEENS5_IS9_EEE21_ConstructTransactionD1B7v160006Ev, symObjAddr: 0x4070, symBinAddr: 0x100006A70, symSize: 0x2C }
  - { offsetInCU: 0x10D25, offset: 0x10D25, size: 0x8, addend: 0x0, symName: __ZNSt3__16vectorIP8HeapNodeINS_12basic_stringIcNS_11char_traitsIcEENS_9allocatorIcEEEEENS5_IS9_EEE21_ConstructTransactionC2B7v160006ERSB_m, symObjAddr: 0x409C, symBinAddr: 0x100006A9C, symSize: 0x44 }
  - { offsetInCU: 0x10D6D, offset: 0x10D6D, size: 0x8, addend: 0x0, symName: __ZNSt3__19allocatorIP8HeapNodeINS_12basic_stringIcNS_11char_traitsIcEENS0_IcEEEEEE9constructB7v160006IS8_JRKS8_EEEvPT_DpOT0_, symObjAddr: 0x40E0, symBinAddr: 0x100006AE0, symSize: 0x28 }
  - { offsetInCU: 0x10DC3, offset: 0x10DC3, size: 0x8, addend: 0x0, symName: __ZNSt3__16vectorIP8HeapNodeINS_12basic_stringIcNS_11char_traitsIcEENS_9allocatorIcEEEEENS5_IS9_EEE21_ConstructTransactionD2B7v160006Ev, symObjAddr: 0x4108, symBinAddr: 0x100006B08, symSize: 0x20 }
  - { offsetInCU: 0x10DED, offset: 0x10DED, size: 0x8, addend: 0x0, symName: __ZNSt3__128__exception_guard_exceptionsINS_6vectorIP8HeapNodeINS_12basic_stringIcNS_11char_traitsIcEENS_9allocatorIcEEEEENS6_ISA_EEE16__destroy_vectorEED2B7v160006Ev, symObjAddr: 0x4128, symBinAddr: 0x100006B28, symSize: 0x48 }
  - { offsetInCU: 0x10E17, offset: 0x10E17, size: 0x8, addend: 0x0, symName: __ZNSt3__16vectorIP8HeapNodeINS_12basic_stringIcNS_11char_traitsIcEENS_9allocatorIcEEEEENS5_IS9_EEE16__destroy_vectorclB7v160006Ev, symObjAddr: 0x4170, symBinAddr: 0x100006B70, symSize: 0x9C }
  - { offsetInCU: 0x10E3D, offset: 0x10E3D, size: 0x8, addend: 0x0, symName: __ZNKSt3__16vectorIP8HeapNodeINS_12basic_stringIcNS_11char_traitsIcEENS_9allocatorIcEEEEENS5_IS9_EEE17__annotate_deleteB7v160006Ev, symObjAddr: 0x420C, symBinAddr: 0x100006C0C, symSize: 0xB8 }
  - { offsetInCU: 0x10E63, offset: 0x10E63, size: 0x8, addend: 0x0, symName: __ZNSt3__16vectorIP8HeapNodeINS_12basic_stringIcNS_11char_traitsIcEENS_9allocatorIcEEEEENS5_IS9_EEE7__clearB7v160006Ev, symObjAddr: 0x42D4, symBinAddr: 0x100006CD4, symSize: 0x28 }
  - { offsetInCU: 0x10E89, offset: 0x10E89, size: 0x8, addend: 0x0, symName: __ZNSt3__116allocator_traitsINS_9allocatorIP8HeapNodeINS_12basic_stringIcNS_11char_traitsIcEENS1_IcEEEEEEEE10deallocateB7v160006ERSA_PS9_m, symObjAddr: 0x42FC, symBinAddr: 0x100006CFC, symSize: 0x34 }
  - { offsetInCU: 0x10ECB, offset: 0x10ECB, size: 0x8, addend: 0x0, symName: __ZNKSt3__16vectorIP8HeapNodeINS_12basic_stringIcNS_11char_traitsIcEENS_9allocatorIcEEEEENS5_IS9_EEE4sizeB7v160006Ev, symObjAddr: 0x4330, symBinAddr: 0x100006D30, symSize: 0x28 }
  - { offsetInCU: 0x10EF1, offset: 0x10EF1, size: 0x8, addend: 0x0, symName: __ZNSt3__16vectorIP8HeapNodeINS_12basic_stringIcNS_11char_traitsIcEENS_9allocatorIcEEEEENS5_IS9_EEE22__base_destruct_at_endB7v160006EPS9_, symObjAddr: 0x4358, symBinAddr: 0x100006D58, symSize: 0xA0 }
  - { offsetInCU: 0x10F35, offset: 0x10F35, size: 0x8, addend: 0x0, symName: __ZNSt3__116allocator_traitsINS_9allocatorIP8HeapNodeINS_12basic_stringIcNS_11char_traitsIcEENS1_IcEEEEEEEE7destroyB7v160006IS9_vEEvRSA_PT_, symObjAddr: 0x43F8, symBinAddr: 0x100006DF8, symSize: 0x2C }
  - { offsetInCU: 0x10F72, offset: 0x10F72, size: 0x8, addend: 0x0, symName: __ZNSt3__19allocatorIP8HeapNodeINS_12basic_stringIcNS_11char_traitsIcEENS0_IcEEEEEE7destroyB7v160006EPS8_, symObjAddr: 0x4424, symBinAddr: 0x100006E24, symSize: 0x14 }
  - { offsetInCU: 0x10FA6, offset: 0x10FA6, size: 0x8, addend: 0x0, symName: __ZNSt3__19allocatorIP8HeapNodeINS_12basic_stringIcNS_11char_traitsIcEENS0_IcEEEEEE10deallocateB7v160006EPS8_m, symObjAddr: 0x4438, symBinAddr: 0x100006E38, symSize: 0x70 }
  - { offsetInCU: 0x10FE8, offset: 0x10FE8, size: 0x8, addend: 0x0, symName: __ZNSt16invalid_argumentC1B7v160006EPKc, symObjAddr: 0x4524, symBinAddr: 0x100006F24, symSize: 0x34 }
  - { offsetInCU: 0x11020, offset: 0x11020, size: 0x8, addend: 0x0, symName: __ZN8HeapNodeINSt3__112basic_stringIcNS0_11char_traitsIcEENS0_9allocatorIcEEEEE14getLeftSiblingEv, symObjAddr: 0x4558, symBinAddr: 0x100006F58, symSize: 0x18 }
  - { offsetInCU: 0x11046, offset: 0x11046, size: 0x8, addend: 0x0, symName: __ZNSt3__16vectorIP8HeapNodeINS_12basic_stringIcNS_11char_traitsIcEENS_9allocatorIcEEEEENS5_IS9_EEE6insertENS_11__wrap_iterIPKS9_EERSD_, symObjAddr: 0x4570, symBinAddr: 0x100006F70, symSize: 0x20C }
  - { offsetInCU: 0x110DD, offset: 0x110DD, size: 0x8, addend: 0x0, symName: __ZNSt3__16vectorIP8HeapNodeINS_12basic_stringIcNS_11char_traitsIcEENS_9allocatorIcEEEEENS5_IS9_EEE3endB7v160006Ev, symObjAddr: 0x477C, symBinAddr: 0x10000717C, symSize: 0x30 }
  - { offsetInCU: 0x1110E, offset: 0x1110E, size: 0x8, addend: 0x0, symName: __ZNSt3__111__wrap_iterIPKP8HeapNodeINS_12basic_stringIcNS_11char_traitsIcEENS_9allocatorIcEEEEEEC1B7v160006IPS9_EERKNS0_IT_EEPNS_9enable_ifIXsr14is_convertibleISF_SB_EE5valueEvE4typeE, symObjAddr: 0x47AC, symBinAddr: 0x1000071AC, symSize: 0x3C }
  - { offsetInCU: 0x11159, offset: 0x11159, size: 0x8, addend: 0x0, symName: __ZNSt16invalid_argumentC2B7v160006EPKc, symObjAddr: 0x47E8, symBinAddr: 0x1000071E8, symSize: 0x4C }
  - { offsetInCU: 0x11191, offset: 0x11191, size: 0x8, addend: 0x0, symName: __ZNSt3__16vectorIP8HeapNodeINS_12basic_stringIcNS_11char_traitsIcEENS_9allocatorIcEEEEENS5_IS9_EEE5beginB7v160006Ev, symObjAddr: 0x487C, symBinAddr: 0x10000727C, symSize: 0x30 }
  - { offsetInCU: 0x111B8, offset: 0x111B8, size: 0x8, addend: 0x0, symName: __ZNSt3__16vectorIP8HeapNodeINS_12basic_stringIcNS_11char_traitsIcEENS_9allocatorIcEEEEENS5_IS9_EEE22__construct_one_at_endB7v160006IJRKS9_EEEvDpOT_, symObjAddr: 0x48AC, symBinAddr: 0x1000072AC, symSize: 0x98 }
  - { offsetInCU: 0x11207, offset: 0x11207, size: 0x8, addend: 0x0, symName: __ZNSt3__16vectorIP8HeapNodeINS_12basic_stringIcNS_11char_traitsIcEENS_9allocatorIcEEEEENS5_IS9_EEE12__move_rangeEPS9_SC_SC_, symObjAddr: 0x4944, symBinAddr: 0x100007344, symSize: 0x134 }
  - { offsetInCU: 0x112C4, offset: 0x112C4, size: 0x8, addend: 0x0, symName: __ZNSt3__114pointer_traitsIPKP8HeapNodeINS_12basic_stringIcNS_11char_traitsIcEENS_9allocatorIcEEEEEE10pointer_toB7v160006ERSA_, symObjAddr: 0x4A78, symBinAddr: 0x100007478, symSize: 0x14 }
  - { offsetInCU: 0x112E7, offset: 0x112E7, size: 0x8, addend: 0x0, symName: __ZNKSt3__16vectorIP8HeapNodeINS_12basic_stringIcNS_11char_traitsIcEENS_9allocatorIcEEEEENS5_IS9_EEE11__recommendB7v160006Em, symObjAddr: 0x4A8C, symBinAddr: 0x10000748C, symSize: 0xB4 }
  - { offsetInCU: 0x1133B, offset: 0x1133B, size: 0x8, addend: 0x0, symName: __ZNSt3__114__split_bufferIP8HeapNodeINS_12basic_stringIcNS_11char_traitsIcEENS_9allocatorIcEEEEERNS5_IS9_EEEC1EmmSB_, symObjAddr: 0x4B40, symBinAddr: 0x100007540, symSize: 0x44 }
  - { offsetInCU: 0x11391, offset: 0x11391, size: 0x8, addend: 0x0, symName: __ZNSt3__114__split_bufferIP8HeapNodeINS_12basic_stringIcNS_11char_traitsIcEENS_9allocatorIcEEEEERNS5_IS9_EEE9push_backB7v160006ERKS9_, symObjAddr: 0x4B84, symBinAddr: 0x100007584, symSize: 0x270 }
  - { offsetInCU: 0x11409, offset: 0x11409, size: 0x8, addend: 0x0, symName: __ZNSt3__114__split_bufferIP8HeapNodeINS_12basic_stringIcNS_11char_traitsIcEENS_9allocatorIcEEEEERNS5_IS9_EEED1Ev, symObjAddr: 0x4F48, symBinAddr: 0x100007948, symSize: 0x2C }
  - { offsetInCU: 0x11435, offset: 0x11435, size: 0x8, addend: 0x0, symName: __ZNSt3__16vectorIP8HeapNodeINS_12basic_stringIcNS_11char_traitsIcEENS_9allocatorIcEEEEENS5_IS9_EEE11__make_iterB7v160006EPS9_, symObjAddr: 0x4F74, symBinAddr: 0x100007974, symSize: 0x34 }
  - { offsetInCU: 0x1146A, offset: 0x1146A, size: 0x8, addend: 0x0, symName: __ZNKSt3__111__wrap_iterIPKP8HeapNodeINS_12basic_stringIcNS_11char_traitsIcEENS_9allocatorIcEEEEEE4baseB7v160006Ev, symObjAddr: 0x4FA8, symBinAddr: 0x1000079A8, symSize: 0x18 }
  - { offsetInCU: 0x11490, offset: 0x11490, size: 0x8, addend: 0x0, symName: __ZNKSt3__111__wrap_iterIPP8HeapNodeINS_12basic_stringIcNS_11char_traitsIcEENS_9allocatorIcEEEEEE4baseB7v160006Ev, symObjAddr: 0x4FC0, symBinAddr: 0x1000079C0, symSize: 0x18 }
  - { offsetInCU: 0x114B6, offset: 0x114B6, size: 0x8, addend: 0x0, symName: __ZNSt3__116allocator_traitsINS_9allocatorIP8HeapNodeINS_12basic_stringIcNS_11char_traitsIcEENS1_IcEEEEEEEE9constructB7v160006IS9_JS9_EvEEvRSA_PT_DpOT0_, symObjAddr: 0x4FD8, symBinAddr: 0x1000079D8, symSize: 0x34 }
  - { offsetInCU: 0x1150D, offset: 0x1150D, size: 0x8, addend: 0x0, symName: __ZNSt3__19allocatorIP8HeapNodeINS_12basic_stringIcNS_11char_traitsIcEENS0_IcEEEEEE9constructB7v160006IS8_JS8_EEEvPT_DpOT0_, symObjAddr: 0x504C, symBinAddr: 0x100007A4C, symSize: 0x28 }
  - { offsetInCU: 0x11586, offset: 0x11586, size: 0x8, addend: 0x0, symName: __ZNKSt3__123__move_backward_trivialclB7v160006IP8HeapNodeINS_12basic_stringIcNS_11char_traitsIcEENS_9allocatorIcEEEEESA_Li0EEENS_4pairIPT_PT0_EESD_SD_SF_, symObjAddr: 0x5220, symBinAddr: 0x100007C20, symSize: 0x48 }
  - { offsetInCU: 0x115EE, offset: 0x115EE, size: 0x8, addend: 0x0, symName: __ZNSt3__14pairIPP8HeapNodeINS_12basic_stringIcNS_11char_traitsIcEENS_9allocatorIcEEEEESA_EC1B7v160006ERKSA_SD_, symObjAddr: 0x540C, symBinAddr: 0x100007E0C, symSize: 0x3C }
  - { offsetInCU: 0x11634, offset: 0x11634, size: 0x8, addend: 0x0, symName: __ZNSt3__14pairIPP8HeapNodeINS_12basic_stringIcNS_11char_traitsIcEENS_9allocatorIcEEEEESA_EC2B7v160006ERKSA_SD_, symObjAddr: 0x5448, symBinAddr: 0x100007E48, symSize: 0x34 }
  - { offsetInCU: 0x1167A, offset: 0x1167A, size: 0x8, addend: 0x0, symName: __ZNSt3__118__unwrap_iter_implIPP8HeapNodeINS_12basic_stringIcNS_11char_traitsIcEENS_9allocatorIcEEEEELb1EE8__unwrapB7v160006ESA_, symObjAddr: 0x547C, symBinAddr: 0x100007E7C, symSize: 0x24 }
  - { offsetInCU: 0x1169D, offset: 0x1169D, size: 0x8, addend: 0x0, symName: __ZNSt3__118__unwrap_iter_implIPP8HeapNodeINS_12basic_stringIcNS_11char_traitsIcEENS_9allocatorIcEEEEELb1EE8__rewrapB7v160006ESA_SA_, symObjAddr: 0x54A0, symBinAddr: 0x100007EA0, symSize: 0x50 }
  - { offsetInCU: 0x116CE, offset: 0x116CE, size: 0x8, addend: 0x0, symName: __ZNSt3__114__split_bufferIP8HeapNodeINS_12basic_stringIcNS_11char_traitsIcEENS_9allocatorIcEEEEERNS5_IS9_EEEC2EmmSB_, symObjAddr: 0x5570, symBinAddr: 0x100007F70, symSize: 0xD4 }
  - { offsetInCU: 0x11742, offset: 0x11742, size: 0x8, addend: 0x0, symName: __ZNSt3__117__compressed_pairIPP8HeapNodeINS_12basic_stringIcNS_11char_traitsIcEENS_9allocatorIcEEEEERNS5_IS9_EEEC1B7v160006IDnSC_EEOT_OT0_, symObjAddr: 0x5644, symBinAddr: 0x100008044, symSize: 0x3C }
  - { offsetInCU: 0x1179A, offset: 0x1179A, size: 0x8, addend: 0x0, symName: __ZNSt3__114__split_bufferIP8HeapNodeINS_12basic_stringIcNS_11char_traitsIcEENS_9allocatorIcEEEEERNS5_IS9_EEE7__allocB7v160006Ev, symObjAddr: 0x5680, symBinAddr: 0x100008080, symSize: 0x28 }
  - { offsetInCU: 0x117C0, offset: 0x117C0, size: 0x8, addend: 0x0, symName: __ZNSt3__114__split_bufferIP8HeapNodeINS_12basic_stringIcNS_11char_traitsIcEENS_9allocatorIcEEEEERNS5_IS9_EEE9__end_capB7v160006Ev, symObjAddr: 0x56A8, symBinAddr: 0x1000080A8, symSize: 0x28 }
  - { offsetInCU: 0x117E6, offset: 0x117E6, size: 0x8, addend: 0x0, symName: __ZNSt3__117__compressed_pairIPP8HeapNodeINS_12basic_stringIcNS_11char_traitsIcEENS_9allocatorIcEEEEERNS5_IS9_EEEC2B7v160006IDnSC_EEOT_OT0_, symObjAddr: 0x56D0, symBinAddr: 0x1000080D0, symSize: 0x48 }
  - { offsetInCU: 0x1183E, offset: 0x1183E, size: 0x8, addend: 0x0, symName: __ZNSt3__122__compressed_pair_elemIRNS_9allocatorIP8HeapNodeINS_12basic_stringIcNS_11char_traitsIcEENS1_IcEEEEEEELi1ELb0EEC2B7v160006ISB_vEEOT_, symObjAddr: 0x5718, symBinAddr: 0x100008118, symSize: 0x20 }
  - { offsetInCU: 0x11880, offset: 0x11880, size: 0x8, addend: 0x0, symName: __ZNSt3__117__compressed_pairIPP8HeapNodeINS_12basic_stringIcNS_11char_traitsIcEENS_9allocatorIcEEEEERNS5_IS9_EEE6secondB7v160006Ev, symObjAddr: 0x5738, symBinAddr: 0x100008138, symSize: 0x28 }
  - { offsetInCU: 0x118A6, offset: 0x118A6, size: 0x8, addend: 0x0, symName: __ZNSt3__122__compressed_pair_elemIRNS_9allocatorIP8HeapNodeINS_12basic_stringIcNS_11char_traitsIcEENS1_IcEEEEEEELi1ELb0EE5__getB7v160006Ev, symObjAddr: 0x5760, symBinAddr: 0x100008160, symSize: 0x18 }
  - { offsetInCU: 0x118CC, offset: 0x118CC, size: 0x8, addend: 0x0, symName: __ZNSt3__117__compressed_pairIPP8HeapNodeINS_12basic_stringIcNS_11char_traitsIcEENS_9allocatorIcEEEEERNS5_IS9_EEE5firstB7v160006Ev, symObjAddr: 0x5778, symBinAddr: 0x100008178, symSize: 0x24 }
  - { offsetInCU: 0x118F2, offset: 0x118F2, size: 0x8, addend: 0x0, symName: __ZNSt3__114__split_bufferIP8HeapNodeINS_12basic_stringIcNS_11char_traitsIcEENS_9allocatorIcEEEEERNS5_IS9_EEE18__construct_at_endINS_13move_iteratorIPS9_EEEENS_9enable_ifIXsr27__is_cpp17_forward_iteratorIT_EE5valueEvE4typeESI_SI_, symObjAddr: 0x57DC, symBinAddr: 0x1000081DC, symSize: 0x104 }
  - { offsetInCU: 0x1194D, offset: 0x1194D, size: 0x8, addend: 0x0, symName: __ZNSt3__113move_iteratorIPP8HeapNodeINS_12basic_stringIcNS_11char_traitsIcEENS_9allocatorIcEEEEEEC1B7v160006ESA_, symObjAddr: 0x58E0, symBinAddr: 0x1000082E0, symSize: 0x34 }
  - { offsetInCU: 0x1198F, offset: 0x1198F, size: 0x8, addend: 0x0, symName: __ZNKSt3__114__move_trivialclB7v160006IP8HeapNodeINS_12basic_stringIcNS_11char_traitsIcEENS_9allocatorIcEEEEESA_Li0EEENS_4pairIPT_PT0_EESD_SD_SF_, symObjAddr: 0x5A9C, symBinAddr: 0x10000849C, symSize: 0x48 }
  - { offsetInCU: 0x11A01, offset: 0x11A01, size: 0x8, addend: 0x0, symName: __ZNSt3__114__split_bufferIP8HeapNodeINS_12basic_stringIcNS_11char_traitsIcEENS_9allocatorIcEEEEERNS5_IS9_EEE21_ConstructTransactionC1B7v160006EPPS9_m, symObjAddr: 0x5BDC, symBinAddr: 0x1000085DC, symSize: 0x3C }
  - { offsetInCU: 0x11A47, offset: 0x11A47, size: 0x8, addend: 0x0, symName: __ZNKSt3__113move_iteratorIPP8HeapNodeINS_12basic_stringIcNS_11char_traitsIcEENS_9allocatorIcEEEEEEdeB7v160006Ev, symObjAddr: 0x5C18, symBinAddr: 0x100008618, symSize: 0x18 }
  - { offsetInCU: 0x11A6D, offset: 0x11A6D, size: 0x8, addend: 0x0, symName: __ZNSt3__113move_iteratorIPP8HeapNodeINS_12basic_stringIcNS_11char_traitsIcEENS_9allocatorIcEEEEEEppB7v160006Ev, symObjAddr: 0x5C30, symBinAddr: 0x100008630, symSize: 0x20 }
  - { offsetInCU: 0x11A93, offset: 0x11A93, size: 0x8, addend: 0x0, symName: __ZNSt3__114__split_bufferIP8HeapNodeINS_12basic_stringIcNS_11char_traitsIcEENS_9allocatorIcEEEEERNS5_IS9_EEE21_ConstructTransactionD1B7v160006Ev, symObjAddr: 0x5C50, symBinAddr: 0x100008650, symSize: 0x2C }
  - { offsetInCU: 0x11ABD, offset: 0x11ABD, size: 0x8, addend: 0x0, symName: __ZNKSt3__113move_iteratorIPP8HeapNodeINS_12basic_stringIcNS_11char_traitsIcEENS_9allocatorIcEEEEEE4baseB7v160006Ev, symObjAddr: 0x5CF4, symBinAddr: 0x1000086F4, symSize: 0x18 }
  - { offsetInCU: 0x11AE3, offset: 0x11AE3, size: 0x8, addend: 0x0, symName: __ZNSt3__114__split_bufferIP8HeapNodeINS_12basic_stringIcNS_11char_traitsIcEENS_9allocatorIcEEEEERNS5_IS9_EEE21_ConstructTransactionC2B7v160006EPPS9_m, symObjAddr: 0x5D0C, symBinAddr: 0x10000870C, symSize: 0x44 }
  - { offsetInCU: 0x11B29, offset: 0x11B29, size: 0x8, addend: 0x0, symName: __ZNSt3__114__split_bufferIP8HeapNodeINS_12basic_stringIcNS_11char_traitsIcEENS_9allocatorIcEEEEERNS5_IS9_EEE21_ConstructTransactionD2B7v160006Ev, symObjAddr: 0x5D50, symBinAddr: 0x100008750, symSize: 0x20 }
  - { offsetInCU: 0x11B53, offset: 0x11B53, size: 0x8, addend: 0x0, symName: __ZNSt3__113move_iteratorIPP8HeapNodeINS_12basic_stringIcNS_11char_traitsIcEENS_9allocatorIcEEEEEEC2B7v160006ESA_, symObjAddr: 0x5D70, symBinAddr: 0x100008770, symSize: 0x20 }
  - { offsetInCU: 0x11B8B, offset: 0x11B8B, size: 0x8, addend: 0x0, symName: __ZNSt3__116reverse_iteratorIPP8HeapNodeINS_12basic_stringIcNS_11char_traitsIcEENS_9allocatorIcEEEEEEC1B7v160006ESA_, symObjAddr: 0x5E78, symBinAddr: 0x100008878, symSize: 0x34 }
  - { offsetInCU: 0x11BC3, offset: 0x11BC3, size: 0x8, addend: 0x0, symName: __ZNKSt3__116reverse_iteratorIPP8HeapNodeINS_12basic_stringIcNS_11char_traitsIcEENS_9allocatorIcEEEEEE4baseB7v160006Ev, symObjAddr: 0x5EAC, symBinAddr: 0x1000088AC, symSize: 0x18 }
  - { offsetInCU: 0x11BE9, offset: 0x11BE9, size: 0x8, addend: 0x0, symName: __ZNKSt3__116reverse_iteratorIPP8HeapNodeINS_12basic_stringIcNS_11char_traitsIcEENS_9allocatorIcEEEEEEdeB7v160006Ev, symObjAddr: 0x6010, symBinAddr: 0x100008A10, symSize: 0x28 }
  - { offsetInCU: 0x11C1D, offset: 0x11C1D, size: 0x8, addend: 0x0, symName: __ZNSt3__116reverse_iteratorIPP8HeapNodeINS_12basic_stringIcNS_11char_traitsIcEENS_9allocatorIcEEEEEEppB7v160006Ev, symObjAddr: 0x6038, symBinAddr: 0x100008A38, symSize: 0x20 }
  - { offsetInCU: 0x11C48, offset: 0x11C48, size: 0x8, addend: 0x0, symName: __ZNSt3__119__to_address_helperINS_16reverse_iteratorIPP8HeapNodeINS_12basic_stringIcNS_11char_traitsIcEENS_9allocatorIcEEEEEEEvE6__callB7v160006ERKSC_, symObjAddr: 0x60D0, symBinAddr: 0x100008AD0, symSize: 0x4C }
  - { offsetInCU: 0x11C6B, offset: 0x11C6B, size: 0x8, addend: 0x0, symName: __ZNKSt3__116reverse_iteratorIPP8HeapNodeINS_12basic_stringIcNS_11char_traitsIcEENS_9allocatorIcEEEEEEptB7v160006Ev, symObjAddr: 0x611C, symBinAddr: 0x100008B1C, symSize: 0x24 }
  - { offsetInCU: 0x11CB4, offset: 0x11CB4, size: 0x8, addend: 0x0, symName: __ZNKSt3__111__move_loopINS_17_ClassicAlgPolicyEEclB7v160006INS_16reverse_iteratorIPP8HeapNodeINS_12basic_stringIcNS_11char_traitsIcEENS_9allocatorIcEEEEEEESF_SF_EENS_4pairIT_T1_EESH_T0_SI_, symObjAddr: 0x63D0, symBinAddr: 0x100008DD0, symSize: 0xA0 }
  - { offsetInCU: 0x11D1F, offset: 0x11D1F, size: 0x8, addend: 0x0, symName: __ZNSt3__18_IterOpsINS_17_ClassicAlgPolicyEE11__iter_moveB7v160006IRNS_16reverse_iteratorIPP8HeapNodeINS_12basic_stringIcNS_11char_traitsIcEENS_9allocatorIcEEEEEEEEENS_9enable_ifIXsr12is_referenceIDTdeclsr3stdE7declvalIRT_EEEEE5valueEDTclsr3stdE4movedeclsr3stdE7declvalISJ_EEEEE4typeEOSI_, symObjAddr: 0x65D0, symBinAddr: 0x100008FD0, symSize: 0x28 }
  - { offsetInCU: 0x11D4B, offset: 0x11D4B, size: 0x8, addend: 0x0, symName: __ZNSt3__18_IterOpsINS_17_ClassicAlgPolicyEE25__validate_iter_referenceB7v160006IRNS_16reverse_iteratorIPP8HeapNodeINS_12basic_stringIcNS_11char_traitsIcEENS_9allocatorIcEEEEEEEEEvv, symObjAddr: 0x65F8, symBinAddr: 0x100008FF8, symSize: 0x4 }
  - { offsetInCU: 0x11D69, offset: 0x11D69, size: 0x8, addend: 0x0, symName: __ZNSt3__118__unwrap_iter_implINS_16reverse_iteratorIPP8HeapNodeINS_12basic_stringIcNS_11char_traitsIcEENS_9allocatorIcEEEEEEELb0EE8__unwrapB7v160006ESC_, symObjAddr: 0x65FC, symBinAddr: 0x100008FFC, symSize: 0x24 }
  - { offsetInCU: 0x11D8C, offset: 0x11D8C, size: 0x8, addend: 0x0, symName: __ZNSt3__14pairINS_16reverse_iteratorIPP8HeapNodeINS_12basic_stringIcNS_11char_traitsIcEENS_9allocatorIcEEEEEEESC_EC1B7v160006ERKSC_SF_, symObjAddr: 0x6620, symBinAddr: 0x100009020, symSize: 0x3C }
  - { offsetInCU: 0x11DD2, offset: 0x11DD2, size: 0x8, addend: 0x0, symName: __ZNSt3__14pairINS_16reverse_iteratorIPP8HeapNodeINS_12basic_stringIcNS_11char_traitsIcEENS_9allocatorIcEEEEEEESC_EC2B7v160006ERKSC_SF_, symObjAddr: 0x665C, symBinAddr: 0x10000905C, symSize: 0x34 }
  - { offsetInCU: 0x11E18, offset: 0x11E18, size: 0x8, addend: 0x0, symName: __ZNSt3__118__unwrap_iter_implINS_16reverse_iteratorIPP8HeapNodeINS_12basic_stringIcNS_11char_traitsIcEENS_9allocatorIcEEEEEEELb0EE8__rewrapB7v160006ESC_SC_, symObjAddr: 0x6690, symBinAddr: 0x100009090, symSize: 0x2C }
  - { offsetInCU: 0x11E45, offset: 0x11E45, size: 0x8, addend: 0x0, symName: __ZNSt3__116reverse_iteratorIPP8HeapNodeINS_12basic_stringIcNS_11char_traitsIcEENS_9allocatorIcEEEEEEC2B7v160006ESA_, symObjAddr: 0x66BC, symBinAddr: 0x1000090BC, symSize: 0x28 }
  - { offsetInCU: 0x11E7D, offset: 0x11E7D, size: 0x8, addend: 0x0, symName: __ZNSt3__114__split_bufferIP8HeapNodeINS_12basic_stringIcNS_11char_traitsIcEENS_9allocatorIcEEEEERNS5_IS9_EEED2Ev, symObjAddr: 0x66E4, symBinAddr: 0x1000090E4, symSize: 0x80 }
  - { offsetInCU: 0x11EA9, offset: 0x11EA9, size: 0x8, addend: 0x0, symName: __ZNSt3__114__split_bufferIP8HeapNodeINS_12basic_stringIcNS_11char_traitsIcEENS_9allocatorIcEEEEERNS5_IS9_EEE5clearB7v160006Ev, symObjAddr: 0x6764, symBinAddr: 0x100009164, symSize: 0x28 }
  - { offsetInCU: 0x11ECF, offset: 0x11ECF, size: 0x8, addend: 0x0, symName: __ZNKSt3__114__split_bufferIP8HeapNodeINS_12basic_stringIcNS_11char_traitsIcEENS_9allocatorIcEEEEERNS5_IS9_EEE8capacityB7v160006Ev, symObjAddr: 0x678C, symBinAddr: 0x10000918C, symSize: 0x40 }
  - { offsetInCU: 0x11EF5, offset: 0x11EF5, size: 0x8, addend: 0x0, symName: __ZNSt3__114__split_bufferIP8HeapNodeINS_12basic_stringIcNS_11char_traitsIcEENS_9allocatorIcEEEEERNS5_IS9_EEE17__destruct_at_endB7v160006EPS9_, symObjAddr: 0x67CC, symBinAddr: 0x1000091CC, symSize: 0x2C }
  - { offsetInCU: 0x11F29, offset: 0x11F29, size: 0x8, addend: 0x0, symName: __ZNSt3__114__split_bufferIP8HeapNodeINS_12basic_stringIcNS_11char_traitsIcEENS_9allocatorIcEEEEERNS5_IS9_EEE17__destruct_at_endB7v160006EPS9_NS_17integral_constantIbLb0EEE, symObjAddr: 0x67F8, symBinAddr: 0x1000091F8, symSize: 0x94 }
  - { offsetInCU: 0x11F68, offset: 0x11F68, size: 0x8, addend: 0x0, symName: __ZNKSt3__114__split_bufferIP8HeapNodeINS_12basic_stringIcNS_11char_traitsIcEENS_9allocatorIcEEEEERNS5_IS9_EEE9__end_capB7v160006Ev, symObjAddr: 0x688C, symBinAddr: 0x10000928C, symSize: 0x28 }
  - { offsetInCU: 0x11F8E, offset: 0x11F8E, size: 0x8, addend: 0x0, symName: __ZNKSt3__117__compressed_pairIPP8HeapNodeINS_12basic_stringIcNS_11char_traitsIcEENS_9allocatorIcEEEEERNS5_IS9_EEE5firstB7v160006Ev, symObjAddr: 0x68B4, symBinAddr: 0x1000092B4, symSize: 0x24 }
  - { offsetInCU: 0x11FB4, offset: 0x11FB4, size: 0x8, addend: 0x0, symName: __ZNSt3__111__wrap_iterIPP8HeapNodeINS_12basic_stringIcNS_11char_traitsIcEENS_9allocatorIcEEEEEEC1B7v160006EPKvSA_, symObjAddr: 0x68D8, symBinAddr: 0x1000092D8, symSize: 0x3C }
  - { offsetInCU: 0x11FFA, offset: 0x11FFA, size: 0x8, addend: 0x0, symName: __ZNSt3__111__wrap_iterIPP8HeapNodeINS_12basic_stringIcNS_11char_traitsIcEENS_9allocatorIcEEEEEEC2B7v160006EPKvSA_, symObjAddr: 0x6914, symBinAddr: 0x100009314, symSize: 0x24 }
  - { offsetInCU: 0x12040, offset: 0x12040, size: 0x8, addend: 0x0, symName: __ZNSt3__111__wrap_iterIPKP8HeapNodeINS_12basic_stringIcNS_11char_traitsIcEENS_9allocatorIcEEEEEEC2B7v160006IPS9_EERKNS0_IT_EEPNS_9enable_ifIXsr14is_convertibleISF_SB_EE5valueEvE4typeE, symObjAddr: 0x6938, symBinAddr: 0x100009338, symSize: 0x40 }
  - { offsetInCU: 0x1208B, offset: 0x1208B, size: 0x8, addend: 0x0, symName: __ZNKSt3__112basic_stringIcNS_11char_traitsIcEENS_9allocatorIcEEE7compareB7v160006ERKS5_, symObjAddr: 0x6978, symBinAddr: 0x100009378, symSize: 0x4C }
  - { offsetInCU: 0x120C1, offset: 0x120C1, size: 0x8, addend: 0x0, symName: __ZNKSt3__112basic_stringIcNS_11char_traitsIcEENS_9allocatorIcEEE7compareINS_17basic_string_viewIcS2_EEEENS_9enable_ifIXsr33__can_be_converted_to_string_viewIcS2_T_EE5valueEiE4typeERKSA_, symObjAddr: 0x69C4, symBinAddr: 0x1000093C4, symSize: 0x140 }
  - { offsetInCU: 0x1213D, offset: 0x1213D, size: 0x8, addend: 0x0, symName: __ZNKSt3__112basic_stringIcNS_11char_traitsIcEENS_9allocatorIcEEEcvNS_17basic_string_viewIcS2_EEB7v160006Ev, symObjAddr: 0x6B04, symBinAddr: 0x100009504, symSize: 0x50 }
  - { offsetInCU: 0x12163, offset: 0x12163, size: 0x8, addend: 0x0, symName: __ZNKSt3__117basic_string_viewIcNS_11char_traitsIcEEE4sizeB7v160006Ev, symObjAddr: 0x6B54, symBinAddr: 0x100009554, symSize: 0x18 }
  - { offsetInCU: 0x12189, offset: 0x12189, size: 0x8, addend: 0x0, symName: __ZNSt3__111char_traitsIcE7compareEPKcS3_m, symObjAddr: 0x6B6C, symBinAddr: 0x10000956C, symSize: 0x80 }
  - { offsetInCU: 0x121C8, offset: 0x121C8, size: 0x8, addend: 0x0, symName: __ZNKSt3__117basic_string_viewIcNS_11char_traitsIcEEE4dataB7v160006Ev, symObjAddr: 0x6BEC, symBinAddr: 0x1000095EC, symSize: 0x18 }
  - { offsetInCU: 0x121EE, offset: 0x121EE, size: 0x8, addend: 0x0, symName: __ZNSt3__117basic_string_viewIcNS_11char_traitsIcEEEC1B7v160006EPKcm, symObjAddr: 0x6C38, symBinAddr: 0x100009638, symSize: 0x3C }
  - { offsetInCU: 0x12236, offset: 0x12236, size: 0x8, addend: 0x0, symName: __ZNSt3__117basic_string_viewIcNS_11char_traitsIcEEEC2B7v160006EPKcm, symObjAddr: 0x6C74, symBinAddr: 0x100009674, symSize: 0x2C }
  - { offsetInCU: 0x1227E, offset: 0x1227E, size: 0x8, addend: 0x0, symName: __ZNSt3__16vectorIP8HeapNodeINS_12basic_stringIcNS_11char_traitsIcEENS_9allocatorIcEEEEENS5_IS9_EEED2B7v160006Ev, symObjAddr: 0x6CA0, symBinAddr: 0x1000096A0, symSize: 0x3C }
  - { offsetInCU: 0x122A8, offset: 0x122A8, size: 0x8, addend: 0x0, symName: __ZN5BHeapINSt3__112basic_stringIcNS0_11char_traitsIcEENS0_9allocatorIcEEEEEC2Ev, symObjAddr: 0x6CDC, symBinAddr: 0x1000096DC, symSize: 0x1C }
  - { offsetInCU: 0x122D2, offset: 0x122D2, size: 0x8, addend: 0x0, symName: __ZN5BHeapINSt3__112basic_stringIcNS0_11char_traitsIcEENS0_9allocatorIcEEEEE14printKeyHelperEP8HeapNodeIS6_E, symObjAddr: 0x6CF8, symBinAddr: 0x1000096F8, symSize: 0x1A4 }
  - { offsetInCU: 0x12335, offset: 0x12335, size: 0x8, addend: 0x0, symName: __ZN8HeapNodeINSt3__112basic_stringIcNS0_11char_traitsIcEENS0_9allocatorIcEEEEE11getChildrenEv, symObjAddr: 0x6E9C, symBinAddr: 0x10000989C, symSize: 0x3C }
  - { offsetInCU: 0x1235B, offset: 0x1235B, size: 0x8, addend: 0x0, symName: __ZNKSt3__16vectorIP8HeapNodeINS_12basic_stringIcNS_11char_traitsIcEENS_9allocatorIcEEEEENS5_IS9_EEE5emptyB7v160006Ev, symObjAddr: 0x6ED8, symBinAddr: 0x1000098D8, symSize: 0x28 }
  - { offsetInCU: 0x12381, offset: 0x12381, size: 0x8, addend: 0x0, symName: __ZNSt3__16vectorIP8HeapNodeINS_12basic_stringIcNS_11char_traitsIcEENS_9allocatorIcEEEEENS5_IS9_EEE5frontB7v160006Ev, symObjAddr: 0x6F00, symBinAddr: 0x100009900, symSize: 0x18 }
  - { offsetInCU: 0x123A7, offset: 0x123A7, size: 0x8, addend: 0x0, symName: __ZNSt3__16vectorIP8HeapNodeINS_12basic_stringIcNS_11char_traitsIcEENS_9allocatorIcEEEEENS5_IS9_EEEC1ERKSB_, symObjAddr: 0x6F18, symBinAddr: 0x100009918, symSize: 0x34 }
  - { offsetInCU: 0x123E2, offset: 0x123E2, size: 0x8, addend: 0x0, symName: __ZNSt3__16vectorIP8HeapNodeINS_12basic_stringIcNS_11char_traitsIcEENS_9allocatorIcEEEEENS5_IS9_EEEC2ERKSB_, symObjAddr: 0x6F4C, symBinAddr: 0x10000994C, symSize: 0x118 }
  - { offsetInCU: 0x12441, offset: 0x12441, size: 0x8, addend: 0x0, symName: __ZNSt3__116allocator_traitsINS_9allocatorIP8HeapNodeINS_12basic_stringIcNS_11char_traitsIcEENS1_IcEEEEEEEE37select_on_container_copy_constructionB7v160006ISA_vvEESA_RKSA_, symObjAddr: 0x7064, symBinAddr: 0x100009A64, symSize: 0x10 }
  - { offsetInCU: 0x12475, offset: 0x12475, size: 0x8, addend: 0x0, symName: __ZNSt3__117__compressed_pairIPP8HeapNodeINS_12basic_stringIcNS_11char_traitsIcEENS_9allocatorIcEEEEENS5_IS9_EEEC1B7v160006IDnSB_EEOT_OT0_, symObjAddr: 0x7074, symBinAddr: 0x100009A74, symSize: 0x3C }
  - { offsetInCU: 0x124CD, offset: 0x124CD, size: 0x8, addend: 0x0, symName: __ZNSt3__16vectorIP8HeapNodeINS_12basic_stringIcNS_11char_traitsIcEENS_9allocatorIcEEEEENS5_IS9_EEE18__construct_at_endIPS9_Li0EEEvT_SE_m, symObjAddr: 0x70B0, symBinAddr: 0x100009AB0, symSize: 0x94 }
  - { offsetInCU: 0x1253F, offset: 0x1253F, size: 0x8, addend: 0x0, symName: __ZNSt3__117__compressed_pairIPP8HeapNodeINS_12basic_stringIcNS_11char_traitsIcEENS_9allocatorIcEEEEENS5_IS9_EEEC2B7v160006IDnSB_EEOT_OT0_, symObjAddr: 0x7144, symBinAddr: 0x100009B44, symSize: 0x44 }
  - { offsetInCU: 0x12597, offset: 0x12597, size: 0x8, addend: 0x0, symName: __ZNSt3__122__compressed_pair_elemINS_9allocatorIP8HeapNodeINS_12basic_stringIcNS_11char_traitsIcEENS1_IcEEEEEEELi1ELb1EEC2B7v160006ISA_vEEOT_, symObjAddr: 0x7188, symBinAddr: 0x100009B88, symSize: 0x18 }
  - { offsetInCU: 0x125D9, offset: 0x125D9, size: 0x8, addend: 0x0, symName: __ZNSt3__129_AllocatorDestroyRangeReverseINS_9allocatorIP8HeapNodeINS_12basic_stringIcNS_11char_traitsIcEENS1_IcEEEEEEEPS9_EC1B7v160006ERSA_RSB_SE_, symObjAddr: 0x72E8, symBinAddr: 0x100009CE8, symSize: 0x44 }
  - { offsetInCU: 0x12630, offset: 0x12630, size: 0x8, addend: 0x0, symName: __ZNSt3__116allocator_traitsINS_9allocatorIP8HeapNodeINS_12basic_stringIcNS_11char_traitsIcEENS1_IcEEEEEEEE9constructB7v160006IS9_JRS9_EvEEvRSA_PT_DpOT0_, symObjAddr: 0x732C, symBinAddr: 0x100009D2C, symSize: 0x34 }
  - { offsetInCU: 0x12687, offset: 0x12687, size: 0x8, addend: 0x0, symName: __ZNSt3__128__exception_guard_exceptionsINS_29_AllocatorDestroyRangeReverseINS_9allocatorIP8HeapNodeINS_12basic_stringIcNS_11char_traitsIcEENS2_IcEEEEEEEPSA_EEE10__completeB7v160006Ev, symObjAddr: 0x7360, symBinAddr: 0x100009D60, symSize: 0x1C }
  - { offsetInCU: 0x126AD, offset: 0x126AD, size: 0x8, addend: 0x0, symName: __ZNSt3__128__exception_guard_exceptionsINS_29_AllocatorDestroyRangeReverseINS_9allocatorIP8HeapNodeINS_12basic_stringIcNS_11char_traitsIcEENS2_IcEEEEEEEPSA_EEED1B7v160006Ev, symObjAddr: 0x737C, symBinAddr: 0x100009D7C, symSize: 0x2C }
  - { offsetInCU: 0x126D7, offset: 0x126D7, size: 0x8, addend: 0x0, symName: __ZNSt3__128__exception_guard_exceptionsINS_29_AllocatorDestroyRangeReverseINS_9allocatorIP8HeapNodeINS_12basic_stringIcNS_11char_traitsIcEENS2_IcEEEEEEEPSA_EEEC1B7v160006ESD_, symObjAddr: 0x73A8, symBinAddr: 0x100009DA8, symSize: 0x34 }
  - { offsetInCU: 0x12710, offset: 0x12710, size: 0x8, addend: 0x0, symName: __ZNSt3__128__exception_guard_exceptionsINS_29_AllocatorDestroyRangeReverseINS_9allocatorIP8HeapNodeINS_12basic_stringIcNS_11char_traitsIcEENS2_IcEEEEEEEPSA_EEEC2B7v160006ESD_, symObjAddr: 0x73DC, symBinAddr: 0x100009DDC, symSize: 0x30 }
  - { offsetInCU: 0x12749, offset: 0x12749, size: 0x8, addend: 0x0, symName: __ZNSt3__129_AllocatorDestroyRangeReverseINS_9allocatorIP8HeapNodeINS_12basic_stringIcNS_11char_traitsIcEENS1_IcEEEEEEEPS9_EC2B7v160006ERSA_RSB_SE_, symObjAddr: 0x740C, symBinAddr: 0x100009E0C, symSize: 0x38 }
  - { offsetInCU: 0x127A0, offset: 0x127A0, size: 0x8, addend: 0x0, symName: __ZNSt3__19allocatorIP8HeapNodeINS_12basic_stringIcNS_11char_traitsIcEENS0_IcEEEEEE9constructB7v160006IS8_JRS8_EEEvPT_DpOT0_, symObjAddr: 0x7444, symBinAddr: 0x100009E44, symSize: 0x28 }
  - { offsetInCU: 0x127F6, offset: 0x127F6, size: 0x8, addend: 0x0, symName: __ZNSt3__128__exception_guard_exceptionsINS_29_AllocatorDestroyRangeReverseINS_9allocatorIP8HeapNodeINS_12basic_stringIcNS_11char_traitsIcEENS2_IcEEEEEEEPSA_EEED2B7v160006Ev, symObjAddr: 0x746C, symBinAddr: 0x100009E6C, symSize: 0x48 }
  - { offsetInCU: 0x12820, offset: 0x12820, size: 0x8, addend: 0x0, symName: __ZNKSt3__129_AllocatorDestroyRangeReverseINS_9allocatorIP8HeapNodeINS_12basic_stringIcNS_11char_traitsIcEENS1_IcEEEEEEEPS9_EclB7v160006Ev, symObjAddr: 0x74B4, symBinAddr: 0x100009EB4, symSize: 0x68 }
  - { offsetInCU: 0x12846, offset: 0x12846, size: 0x8, addend: 0x0, symName: __ZN8HeapNodeINSt3__112basic_stringIcNS0_11char_traitsIcEENS0_9allocatorIcEEEEE15shiftChildrenUpEv, symObjAddr: 0x758C, symBinAddr: 0x100009F8C, symSize: 0xE0 }
  - { offsetInCU: 0x1286C, offset: 0x1286C, size: 0x8, addend: 0x0, symName: __ZN8HeapNodeINSt3__112basic_stringIcNS0_11char_traitsIcEENS0_9allocatorIcEEEEED1Ev, symObjAddr: 0x766C, symBinAddr: 0x10000A06C, symSize: 0x2C }
  - { offsetInCU: 0x12896, offset: 0x12896, size: 0x8, addend: 0x0, symName: __ZNSt3__16vectorIP8HeapNodeINS_12basic_stringIcNS_11char_traitsIcEENS_9allocatorIcEEEEENS5_IS9_EEE4backB7v160006Ev, symObjAddr: 0x7698, symBinAddr: 0x10000A098, symSize: 0x1C }
  - { offsetInCU: 0x128BC, offset: 0x128BC, size: 0x8, addend: 0x0, symName: __ZN8HeapNodeINSt3__112basic_stringIcNS0_11char_traitsIcEENS0_9allocatorIcEEEEED2Ev, symObjAddr: 0x76B4, symBinAddr: 0x10000A0B4, symSize: 0x70 }
  - { offsetInCU: 0x128E6, offset: 0x128E6, size: 0x8, addend: 0x0, symName: __ZN8HeapNodeINSt3__112basic_stringIcNS0_11char_traitsIcEENS0_9allocatorIcEEEEEC1ES6_, symObjAddr: 0x7724, symBinAddr: 0x10000A124, symSize: 0x34 }
  - { offsetInCU: 0x1291F, offset: 0x1291F, size: 0x8, addend: 0x0, symName: __ZN8HeapNodeINSt3__112basic_stringIcNS0_11char_traitsIcEENS0_9allocatorIcEEEEEC2ES6_, symObjAddr: 0x7758, symBinAddr: 0x10000A158, symSize: 0xB0 }
  - { offsetInCU: 0x12958, offset: 0x12958, size: 0x8, addend: 0x0, symName: __ZNSt3__112basic_stringIcNS_11char_traitsIcEENS_9allocatorIcEEEC1B7v160006Ev, symObjAddr: 0x7808, symBinAddr: 0x10000A208, symSize: 0x2C }
  - { offsetInCU: 0x12982, offset: 0x12982, size: 0x8, addend: 0x0, symName: __ZNSt3__16vectorIP8HeapNodeINS_12basic_stringIcNS_11char_traitsIcEENS_9allocatorIcEEEEENS5_IS9_EEEC1B7v160006Ev, symObjAddr: 0x7834, symBinAddr: 0x10000A234, symSize: 0x2C }
  - { offsetInCU: 0x129AC, offset: 0x129AC, size: 0x8, addend: 0x0, symName: __ZNSt3__112basic_stringIcNS_11char_traitsIcEENS_9allocatorIcEEEC2B7v160006Ev, symObjAddr: 0x7860, symBinAddr: 0x10000A260, symSize: 0x44 }
  - { offsetInCU: 0x129D6, offset: 0x129D6, size: 0x8, addend: 0x0, symName: __ZNSt3__112basic_stringIcNS_11char_traitsIcEENS_9allocatorIcEEE14__default_initB7v160006Ev, symObjAddr: 0x78A4, symBinAddr: 0x10000A2A4, symSize: 0xB0 }
  - { offsetInCU: 0x12A29, offset: 0x12A29, size: 0x8, addend: 0x0, symName: __ZNSt3__117__compressed_pairINS_12basic_stringIcNS_11char_traitsIcEENS_9allocatorIcEEE5__repES5_E5firstB7v160006Ev, symObjAddr: 0x7954, symBinAddr: 0x10000A354, symSize: 0x24 }
  - { offsetInCU: 0x12A4F, offset: 0x12A4F, size: 0x8, addend: 0x0, symName: __ZNSt3__112basic_stringIcNS_11char_traitsIcEENS_9allocatorIcEEE11__recommendB7v160006Em, symObjAddr: 0x7978, symBinAddr: 0x10000A378, symSize: 0x9C }
  - { offsetInCU: 0x12A82, offset: 0x12A82, size: 0x8, addend: 0x0, symName: __ZNSt3__116allocator_traitsINS_9allocatorIcEEE8allocateB7v160006ERS2_m, symObjAddr: 0x7A14, symBinAddr: 0x10000A414, symSize: 0x2C }
  - { offsetInCU: 0x12AB5, offset: 0x12AB5, size: 0x8, addend: 0x0, symName: __ZNSt3__112basic_stringIcNS_11char_traitsIcEENS_9allocatorIcEEE7__allocB7v160006Ev, symObjAddr: 0x7A40, symBinAddr: 0x10000A440, symSize: 0x24 }
  - { offsetInCU: 0x12ADB, offset: 0x12ADB, size: 0x8, addend: 0x0, symName: __ZNSt3__112basic_stringIcNS_11char_traitsIcEENS_9allocatorIcEEE16__begin_lifetimeB7v160006EPcm, symObjAddr: 0x7A64, symBinAddr: 0x10000A464, symSize: 0x14 }
  - { offsetInCU: 0x12B0E, offset: 0x12B0E, size: 0x8, addend: 0x0, symName: __ZNSt3__112basic_stringIcNS_11char_traitsIcEENS_9allocatorIcEEE18__set_long_pointerB7v160006EPc, symObjAddr: 0x7A78, symBinAddr: 0x10000A478, symSize: 0x38 }
  - { offsetInCU: 0x12B43, offset: 0x12B43, size: 0x8, addend: 0x0, symName: __ZNSt3__112basic_stringIcNS_11char_traitsIcEENS_9allocatorIcEEE14__set_long_capB7v160006Em, symObjAddr: 0x7AB0, symBinAddr: 0x10000A4B0, symSize: 0x70 }
  - { offsetInCU: 0x12B78, offset: 0x12B78, size: 0x8, addend: 0x0, symName: __ZNSt3__112basic_stringIcNS_11char_traitsIcEENS_9allocatorIcEEE15__set_long_sizeB7v160006Em, symObjAddr: 0x7B20, symBinAddr: 0x10000A520, symSize: 0x38 }
  - { offsetInCU: 0x12BAD, offset: 0x12BAD, size: 0x8, addend: 0x0, symName: __ZNSt3__122__compressed_pair_elemINS_12basic_stringIcNS_11char_traitsIcEENS_9allocatorIcEEE5__repELi0ELb0EE5__getB7v160006Ev, symObjAddr: 0x7B58, symBinAddr: 0x10000A558, symSize: 0x14 }
  - { offsetInCU: 0x12BD3, offset: 0x12BD3, size: 0x8, addend: 0x0, symName: __ZNSt3__112basic_stringIcNS_11char_traitsIcEENS_9allocatorIcEEE10__align_itB7v160006ILm16EEEmm, symObjAddr: 0x7B6C, symBinAddr: 0x10000A56C, symSize: 0x1C }
  - { offsetInCU: 0x12C01, offset: 0x12C01, size: 0x8, addend: 0x0, symName: __ZNSt3__19allocatorIcE8allocateB7v160006Em, symObjAddr: 0x7B88, symBinAddr: 0x10000A588, symSize: 0x84 }
  - { offsetInCU: 0x12C3F, offset: 0x12C3F, size: 0x8, addend: 0x0, symName: __ZNSt3__116allocator_traitsINS_9allocatorIcEEE8max_sizeB7v160006IS2_vEEmRKS2_, symObjAddr: 0x7C0C, symBinAddr: 0x10000A60C, symSize: 0x24 }
  - { offsetInCU: 0x12C6D, offset: 0x12C6D, size: 0x8, addend: 0x0, symName: __ZNKSt3__19allocatorIcE8max_sizeB7v160006Ev, symObjAddr: 0x7C30, symBinAddr: 0x10000A630, symSize: 0x14 }
  - { offsetInCU: 0x12C93, offset: 0x12C93, size: 0x8, addend: 0x0, symName: __ZNSt3__117__compressed_pairINS_12basic_stringIcNS_11char_traitsIcEENS_9allocatorIcEEE5__repES5_E6secondB7v160006Ev, symObjAddr: 0x7C44, symBinAddr: 0x10000A644, symSize: 0x24 }
  - { offsetInCU: 0x12CB9, offset: 0x12CB9, size: 0x8, addend: 0x0, symName: __ZNSt3__122__compressed_pair_elemINS_9allocatorIcEELi1ELb1EE5__getB7v160006Ev, symObjAddr: 0x7C68, symBinAddr: 0x10000A668, symSize: 0x14 }
  - { offsetInCU: 0x12CDF, offset: 0x12CDF, size: 0x8, addend: 0x0, symName: __ZNSt3__16vectorIP8HeapNodeINS_12basic_stringIcNS_11char_traitsIcEENS_9allocatorIcEEEEENS5_IS9_EEEC2B7v160006Ev, symObjAddr: 0x7C7C, symBinAddr: 0x10000A67C, symSize: 0x4C }
  - { offsetInCU: 0x12D09, offset: 0x12D09, size: 0x8, addend: 0x0, symName: __ZN5BHeapIiEC2Ev, symObjAddr: 0x7CC8, symBinAddr: 0x10000A6C8, symSize: 0x1C }
  - { offsetInCU: 0x12D33, offset: 0x12D33, size: 0x8, addend: 0x0, symName: __ZN8HeapNodeIiEC1Ei, symObjAddr: 0x7CE4, symBinAddr: 0x10000A6E4, symSize: 0x34 }
  - { offsetInCU: 0x12D6B, offset: 0x12D6B, size: 0x8, addend: 0x0, symName: __ZN8HeapNodeIiE15setRightSiblingEPS0_, symObjAddr: 0x7D18, symBinAddr: 0x10000A718, symSize: 0x48 }
  - { offsetInCU: 0x12D9F, offset: 0x12D9F, size: 0x8, addend: 0x0, symName: __ZN8HeapNodeIiE14setLeftSiblingEPS0_, symObjAddr: 0x7D60, symBinAddr: 0x10000A760, symSize: 0x48 }
  - { offsetInCU: 0x12DD3, offset: 0x12DD3, size: 0x8, addend: 0x0, symName: __ZN8HeapNodeIiE14getLeftSiblingEv, symObjAddr: 0x7DA8, symBinAddr: 0x10000A7A8, symSize: 0x18 }
  - { offsetInCU: 0x12DF9, offset: 0x12DF9, size: 0x8, addend: 0x0, symName: __ZN8HeapNodeIiE6getKeyEv, symObjAddr: 0x7DC0, symBinAddr: 0x10000A7C0, symSize: 0x18 }
  - { offsetInCU: 0x12E1F, offset: 0x12E1F, size: 0x8, addend: 0x0, symName: __ZN8HeapNodeIiEC2Ei, symObjAddr: 0x7DD8, symBinAddr: 0x10000A7D8, symSize: 0x48 }
  - { offsetInCU: 0x12E57, offset: 0x12E57, size: 0x8, addend: 0x0, symName: __ZNSt3__16vectorIP8HeapNodeIiENS_9allocatorIS3_EEEC1B7v160006Ev, symObjAddr: 0x7E20, symBinAddr: 0x10000A820, symSize: 0x2C }
  - { offsetInCU: 0x12E81, offset: 0x12E81, size: 0x8, addend: 0x0, symName: __ZNSt3__16vectorIP8HeapNodeIiENS_9allocatorIS3_EEEC2B7v160006Ev, symObjAddr: 0x7E4C, symBinAddr: 0x10000A84C, symSize: 0x4C }
  - { offsetInCU: 0x12EAB, offset: 0x12EAB, size: 0x8, addend: 0x0, symName: __ZNSt3__117__compressed_pairIPP8HeapNodeIiENS_9allocatorIS3_EEEC1B7v160006IDnNS_18__default_init_tagEEEOT_OT0_, symObjAddr: 0x7E98, symBinAddr: 0x10000A898, symSize: 0x3C }
  - { offsetInCU: 0x12F03, offset: 0x12F03, size: 0x8, addend: 0x0, symName: __ZNSt3__117__compressed_pairIPP8HeapNodeIiENS_9allocatorIS3_EEEC2B7v160006IDnNS_18__default_init_tagEEEOT_OT0_, symObjAddr: 0x7EE4, symBinAddr: 0x10000A8E4, symSize: 0x40 }
  - { offsetInCU: 0x12F5B, offset: 0x12F5B, size: 0x8, addend: 0x0, symName: __ZNSt3__122__compressed_pair_elemIPP8HeapNodeIiELi0ELb0EEC2B7v160006IDnvEEOT_, symObjAddr: 0x7F24, symBinAddr: 0x10000A924, symSize: 0x1C }
  - { offsetInCU: 0x12F9D, offset: 0x12F9D, size: 0x8, addend: 0x0, symName: __ZNSt3__122__compressed_pair_elemINS_9allocatorIP8HeapNodeIiEEELi1ELb1EEC2B7v160006ENS_18__default_init_tagE, symObjAddr: 0x7F40, symBinAddr: 0x10000A940, symSize: 0x2C }
  - { offsetInCU: 0x12FD1, offset: 0x12FD1, size: 0x8, addend: 0x0, symName: __ZNSt3__19allocatorIP8HeapNodeIiEEC2B7v160006Ev, symObjAddr: 0x7F6C, symBinAddr: 0x10000A96C, symSize: 0x2C }
  - { offsetInCU: 0x12FFB, offset: 0x12FFB, size: 0x8, addend: 0x0, symName: __ZNSt3__116__non_trivial_ifILb1ENS_9allocatorIP8HeapNodeIiEEEEC2B7v160006Ev, symObjAddr: 0x7F98, symBinAddr: 0x10000A998, symSize: 0x14 }
  - { offsetInCU: 0x13025, offset: 0x13025, size: 0x8, addend: 0x0, symName: __ZN8HeapNodeIiE11getChildrenEv, symObjAddr: 0x7FAC, symBinAddr: 0x10000A9AC, symSize: 0x3C }
  - { offsetInCU: 0x1304B, offset: 0x1304B, size: 0x8, addend: 0x0, symName: __ZNKSt3__16vectorIP8HeapNodeIiENS_9allocatorIS3_EEE5emptyB7v160006Ev, symObjAddr: 0x7FE8, symBinAddr: 0x10000A9E8, symSize: 0x28 }
  - { offsetInCU: 0x13071, offset: 0x13071, size: 0x8, addend: 0x0, symName: __ZNSt3__16vectorIP8HeapNodeIiENS_9allocatorIS3_EEED1B7v160006Ev, symObjAddr: 0x8010, symBinAddr: 0x10000AA10, symSize: 0x2C }
  - { offsetInCU: 0x1309B, offset: 0x1309B, size: 0x8, addend: 0x0, symName: __ZNSt3__16vectorIP8HeapNodeIiENS_9allocatorIS3_EEE5frontB7v160006Ev, symObjAddr: 0x803C, symBinAddr: 0x10000AA3C, symSize: 0x18 }
  - { offsetInCU: 0x130C1, offset: 0x130C1, size: 0x8, addend: 0x0, symName: __ZN8HeapNodeIiE15getRightSiblingEv, symObjAddr: 0x8054, symBinAddr: 0x10000AA54, symSize: 0x18 }
  - { offsetInCU: 0x130E7, offset: 0x130E7, size: 0x8, addend: 0x0, symName: __ZN8HeapNodeIiE15shiftChildrenUpEv, symObjAddr: 0x806C, symBinAddr: 0x10000AA6C, symSize: 0xE0 }
  - { offsetInCU: 0x1310D, offset: 0x1310D, size: 0x8, addend: 0x0, symName: __ZN8HeapNodeIiE9getDegreeEv, symObjAddr: 0x814C, symBinAddr: 0x10000AB4C, symSize: 0x18 }
  - { offsetInCU: 0x13133, offset: 0x13133, size: 0x8, addend: 0x0, symName: __ZN5BHeapIiE11consolidateEv, symObjAddr: 0x8164, symBinAddr: 0x10000AB64, symSize: 0x444 }
  - { offsetInCU: 0x131F1, offset: 0x131F1, size: 0x8, addend: 0x0, symName: __ZN8HeapNodeIiED1Ev, symObjAddr: 0x85A8, symBinAddr: 0x10000AFA8, symSize: 0x2C }
  - { offsetInCU: 0x1321B, offset: 0x1321B, size: 0x8, addend: 0x0, symName: __ZNSt3__16vectorIP8HeapNodeIiENS_9allocatorIS3_EEEC1ERKS6_, symObjAddr: 0x85D4, symBinAddr: 0x10000AFD4, symSize: 0x34 }
  - { offsetInCU: 0x13256, offset: 0x13256, size: 0x8, addend: 0x0, symName: __ZNSt3__16vectorIP8HeapNodeIiENS_9allocatorIS3_EEEC2ERKS6_, symObjAddr: 0x8608, symBinAddr: 0x10000B008, symSize: 0x118 }
  - { offsetInCU: 0x132BF, offset: 0x132BF, size: 0x8, addend: 0x0, symName: __ZNSt3__116allocator_traitsINS_9allocatorIP8HeapNodeIiEEEE37select_on_container_copy_constructionB7v160006IS5_vvEES5_RKS5_, symObjAddr: 0x8720, symBinAddr: 0x10000B120, symSize: 0x10 }
  - { offsetInCU: 0x132EE, offset: 0x132EE, size: 0x8, addend: 0x0, symName: __ZNKSt3__16vectorIP8HeapNodeIiENS_9allocatorIS3_EEE7__allocB7v160006Ev, symObjAddr: 0x8730, symBinAddr: 0x10000B130, symSize: 0x28 }
  - { offsetInCU: 0x13319, offset: 0x13319, size: 0x8, addend: 0x0, symName: __ZNSt3__117__compressed_pairIPP8HeapNodeIiENS_9allocatorIS3_EEEC1B7v160006IDnS6_EEOT_OT0_, symObjAddr: 0x8758, symBinAddr: 0x10000B158, symSize: 0x3C }
  - { offsetInCU: 0x13371, offset: 0x13371, size: 0x8, addend: 0x0, symName: __ZNSt3__16vectorIP8HeapNodeIiENS_9allocatorIS3_EEE16__destroy_vectorC1ERS6_, symObjAddr: 0x87D4, symBinAddr: 0x10000B1D4, symSize: 0x34 }
  - { offsetInCU: 0x133AA, offset: 0x133AA, size: 0x8, addend: 0x0, symName: __ZNKSt3__16vectorIP8HeapNodeIiENS_9allocatorIS3_EEE4sizeB7v160006Ev, symObjAddr: 0x8808, symBinAddr: 0x10000B208, symSize: 0x28 }
  - { offsetInCU: 0x133D0, offset: 0x133D0, size: 0x8, addend: 0x0, symName: __ZNSt3__16vectorIP8HeapNodeIiENS_9allocatorIS3_EEE11__vallocateB7v160006Em, symObjAddr: 0x8830, symBinAddr: 0x10000B230, symSize: 0xAC }
  - { offsetInCU: 0x13414, offset: 0x13414, size: 0x8, addend: 0x0, symName: __ZNSt3__16vectorIP8HeapNodeIiENS_9allocatorIS3_EEE18__construct_at_endIPS3_Li0EEEvT_S9_m, symObjAddr: 0x88DC, symBinAddr: 0x10000B2DC, symSize: 0x94 }
  - { offsetInCU: 0x13486, offset: 0x13486, size: 0x8, addend: 0x0, symName: __ZNSt3__128__exception_guard_exceptionsINS_6vectorIP8HeapNodeIiENS_9allocatorIS4_EEE16__destroy_vectorEE10__completeB7v160006Ev, symObjAddr: 0x8970, symBinAddr: 0x10000B370, symSize: 0x1C }
  - { offsetInCU: 0x134AC, offset: 0x134AC, size: 0x8, addend: 0x0, symName: __ZNSt3__128__exception_guard_exceptionsINS_6vectorIP8HeapNodeIiENS_9allocatorIS4_EEE16__destroy_vectorEED1B7v160006Ev, symObjAddr: 0x898C, symBinAddr: 0x10000B38C, symSize: 0x2C }
  - { offsetInCU: 0x134D6, offset: 0x134D6, size: 0x8, addend: 0x0, symName: __ZNKSt3__117__compressed_pairIPP8HeapNodeIiENS_9allocatorIS3_EEE6secondB7v160006Ev, symObjAddr: 0x89B8, symBinAddr: 0x10000B3B8, symSize: 0x24 }
  - { offsetInCU: 0x134FC, offset: 0x134FC, size: 0x8, addend: 0x0, symName: __ZNKSt3__122__compressed_pair_elemINS_9allocatorIP8HeapNodeIiEEELi1ELb1EE5__getB7v160006Ev, symObjAddr: 0x89DC, symBinAddr: 0x10000B3DC, symSize: 0x14 }
  - { offsetInCU: 0x13522, offset: 0x13522, size: 0x8, addend: 0x0, symName: __ZNSt3__117__compressed_pairIPP8HeapNodeIiENS_9allocatorIS3_EEEC2B7v160006IDnS6_EEOT_OT0_, symObjAddr: 0x89F0, symBinAddr: 0x10000B3F0, symSize: 0x44 }
  - { offsetInCU: 0x1357A, offset: 0x1357A, size: 0x8, addend: 0x0, symName: __ZNSt3__122__compressed_pair_elemINS_9allocatorIP8HeapNodeIiEEELi1ELb1EEC2B7v160006IS5_vEEOT_, symObjAddr: 0x8A34, symBinAddr: 0x10000B434, symSize: 0x18 }
  - { offsetInCU: 0x135BC, offset: 0x135BC, size: 0x8, addend: 0x0, symName: __ZNSt3__128__exception_guard_exceptionsINS_6vectorIP8HeapNodeIiENS_9allocatorIS4_EEE16__destroy_vectorEEC1B7v160006ES8_, symObjAddr: 0x8A4C, symBinAddr: 0x10000B44C, symSize: 0x34 }
  - { offsetInCU: 0x135F4, offset: 0x135F4, size: 0x8, addend: 0x0, symName: __ZNSt3__128__exception_guard_exceptionsINS_6vectorIP8HeapNodeIiENS_9allocatorIS4_EEE16__destroy_vectorEEC2B7v160006ES8_, symObjAddr: 0x8A80, symBinAddr: 0x10000B480, symSize: 0x24 }
  - { offsetInCU: 0x1362C, offset: 0x1362C, size: 0x8, addend: 0x0, symName: __ZNSt3__16vectorIP8HeapNodeIiENS_9allocatorIS3_EEE16__destroy_vectorC2ERS6_, symObjAddr: 0x8AA4, symBinAddr: 0x10000B4A4, symSize: 0x20 }
  - { offsetInCU: 0x13665, offset: 0x13665, size: 0x8, addend: 0x0, symName: __ZNKSt3__16vectorIP8HeapNodeIiENS_9allocatorIS3_EEE8max_sizeEv, symObjAddr: 0x8AC4, symBinAddr: 0x10000B4C4, symSize: 0x74 }
  - { offsetInCU: 0x1368C, offset: 0x1368C, size: 0x8, addend: 0x0, symName: __ZNKSt3__16vectorIP8HeapNodeIiENS_9allocatorIS3_EEE20__throw_length_errorB7v160006Ev, symObjAddr: 0x8B38, symBinAddr: 0x10000B538, symSize: 0x1C }
  - { offsetInCU: 0x136B2, offset: 0x136B2, size: 0x8, addend: 0x0, symName: __ZNSt3__16vectorIP8HeapNodeIiENS_9allocatorIS3_EEE7__allocB7v160006Ev, symObjAddr: 0x8B94, symBinAddr: 0x10000B594, symSize: 0x28 }
  - { offsetInCU: 0x136D8, offset: 0x136D8, size: 0x8, addend: 0x0, symName: __ZNSt3__16vectorIP8HeapNodeIiENS_9allocatorIS3_EEE9__end_capB7v160006Ev, symObjAddr: 0x8BBC, symBinAddr: 0x10000B5BC, symSize: 0x28 }
  - { offsetInCU: 0x136FE, offset: 0x136FE, size: 0x8, addend: 0x0, symName: __ZNKSt3__16vectorIP8HeapNodeIiENS_9allocatorIS3_EEE14__annotate_newB7v160006Em, symObjAddr: 0x8BE4, symBinAddr: 0x10000B5E4, symSize: 0xAC }
  - { offsetInCU: 0x13733, offset: 0x13733, size: 0x8, addend: 0x0, symName: __ZNSt3__116allocator_traitsINS_9allocatorIP8HeapNodeIiEEEE8max_sizeB7v160006IS5_vEEmRKS5_, symObjAddr: 0x8C90, symBinAddr: 0x10000B690, symSize: 0x24 }
  - { offsetInCU: 0x13761, offset: 0x13761, size: 0x8, addend: 0x0, symName: __ZNKSt3__19allocatorIP8HeapNodeIiEE8max_sizeB7v160006Ev, symObjAddr: 0x8CB4, symBinAddr: 0x10000B6B4, symSize: 0x14 }
  - { offsetInCU: 0x13787, offset: 0x13787, size: 0x8, addend: 0x0, symName: __ZNSt3__19allocatorIP8HeapNodeIiEE8allocateB7v160006Em, symObjAddr: 0x8CC8, symBinAddr: 0x10000B6C8, symSize: 0x84 }
  - { offsetInCU: 0x137BB, offset: 0x137BB, size: 0x8, addend: 0x0, symName: __ZNSt3__117__compressed_pairIPP8HeapNodeIiENS_9allocatorIS3_EEE6secondB7v160006Ev, symObjAddr: 0x8D4C, symBinAddr: 0x10000B74C, symSize: 0x24 }
  - { offsetInCU: 0x137E1, offset: 0x137E1, size: 0x8, addend: 0x0, symName: __ZNSt3__122__compressed_pair_elemINS_9allocatorIP8HeapNodeIiEEELi1ELb1EE5__getB7v160006Ev, symObjAddr: 0x8D70, symBinAddr: 0x10000B770, symSize: 0x14 }
  - { offsetInCU: 0x13807, offset: 0x13807, size: 0x8, addend: 0x0, symName: __ZNSt3__117__compressed_pairIPP8HeapNodeIiENS_9allocatorIS3_EEE5firstB7v160006Ev, symObjAddr: 0x8D84, symBinAddr: 0x10000B784, symSize: 0x24 }
  - { offsetInCU: 0x1382D, offset: 0x1382D, size: 0x8, addend: 0x0, symName: __ZNSt3__122__compressed_pair_elemIPP8HeapNodeIiELi0ELb0EE5__getB7v160006Ev, symObjAddr: 0x8DA8, symBinAddr: 0x10000B7A8, symSize: 0x14 }
  - { offsetInCU: 0x13853, offset: 0x13853, size: 0x8, addend: 0x0, symName: __ZNKSt3__16vectorIP8HeapNodeIiENS_9allocatorIS3_EEE31__annotate_contiguous_containerB7v160006EPKvS8_S8_S8_, symObjAddr: 0x8DBC, symBinAddr: 0x10000B7BC, symSize: 0x20 }
  - { offsetInCU: 0x138A5, offset: 0x138A5, size: 0x8, addend: 0x0, symName: __ZNKSt3__16vectorIP8HeapNodeIiENS_9allocatorIS3_EEE4dataB7v160006Ev, symObjAddr: 0x8DDC, symBinAddr: 0x10000B7DC, symSize: 0x28 }
  - { offsetInCU: 0x138CB, offset: 0x138CB, size: 0x8, addend: 0x0, symName: __ZNKSt3__16vectorIP8HeapNodeIiENS_9allocatorIS3_EEE8capacityB7v160006Ev, symObjAddr: 0x8E04, symBinAddr: 0x10000B804, symSize: 0x40 }
  - { offsetInCU: 0x138F1, offset: 0x138F1, size: 0x8, addend: 0x0, symName: __ZNKSt3__16vectorIP8HeapNodeIiENS_9allocatorIS3_EEE9__end_capB7v160006Ev, symObjAddr: 0x8E58, symBinAddr: 0x10000B858, symSize: 0x28 }
  - { offsetInCU: 0x13917, offset: 0x13917, size: 0x8, addend: 0x0, symName: __ZNKSt3__117__compressed_pairIPP8HeapNodeIiENS_9allocatorIS3_EEE5firstB7v160006Ev, symObjAddr: 0x8E80, symBinAddr: 0x10000B880, symSize: 0x24 }
  - { offsetInCU: 0x1393D, offset: 0x1393D, size: 0x8, addend: 0x0, symName: __ZNKSt3__122__compressed_pair_elemIPP8HeapNodeIiELi0ELb0EE5__getB7v160006Ev, symObjAddr: 0x8EA4, symBinAddr: 0x10000B8A4, symSize: 0x14 }
  - { offsetInCU: 0x1397C, offset: 0x1397C, size: 0x8, addend: 0x0, symName: __ZNSt3__16vectorIP8HeapNodeIiENS_9allocatorIS3_EEE21_ConstructTransactionC1B7v160006ERS6_m, symObjAddr: 0x8EB8, symBinAddr: 0x10000B8B8, symSize: 0x3C }
  - { offsetInCU: 0x139C4, offset: 0x139C4, size: 0x8, addend: 0x0, symName: __ZNSt3__16vectorIP8HeapNodeIiENS_9allocatorIS3_EEE21_ConstructTransactionD1B7v160006Ev, symObjAddr: 0x8FF0, symBinAddr: 0x10000B9F0, symSize: 0x2C }
  - { offsetInCU: 0x139EE, offset: 0x139EE, size: 0x8, addend: 0x0, symName: __ZNSt3__16vectorIP8HeapNodeIiENS_9allocatorIS3_EEE21_ConstructTransactionC2B7v160006ERS6_m, symObjAddr: 0x901C, symBinAddr: 0x10000BA1C, symSize: 0x44 }
  - { offsetInCU: 0x13A36, offset: 0x13A36, size: 0x8, addend: 0x0, symName: __ZNSt3__129_AllocatorDestroyRangeReverseINS_9allocatorIP8HeapNodeIiEEEPS4_EC1B7v160006ERS5_RS6_S9_, symObjAddr: 0x90AC, symBinAddr: 0x10000BAAC, symSize: 0x44 }
  - { offsetInCU: 0x13A8D, offset: 0x13A8D, size: 0x8, addend: 0x0, symName: __ZNSt3__116allocator_traitsINS_9allocatorIP8HeapNodeIiEEEE9constructB7v160006IS4_JRS4_EvEEvRS5_PT_DpOT0_, symObjAddr: 0x90F0, symBinAddr: 0x10000BAF0, symSize: 0x34 }
  - { offsetInCU: 0x13AE4, offset: 0x13AE4, size: 0x8, addend: 0x0, symName: __ZNSt3__128__exception_guard_exceptionsINS_29_AllocatorDestroyRangeReverseINS_9allocatorIP8HeapNodeIiEEEPS5_EEE10__completeB7v160006Ev, symObjAddr: 0x9124, symBinAddr: 0x10000BB24, symSize: 0x1C }
  - { offsetInCU: 0x13B0A, offset: 0x13B0A, size: 0x8, addend: 0x0, symName: __ZNSt3__128__exception_guard_exceptionsINS_29_AllocatorDestroyRangeReverseINS_9allocatorIP8HeapNodeIiEEEPS5_EEED1B7v160006Ev, symObjAddr: 0x9140, symBinAddr: 0x10000BB40, symSize: 0x2C }
  - { offsetInCU: 0x13B34, offset: 0x13B34, size: 0x8, addend: 0x0, symName: __ZNSt3__128__exception_guard_exceptionsINS_29_AllocatorDestroyRangeReverseINS_9allocatorIP8HeapNodeIiEEEPS5_EEEC1B7v160006ES8_, symObjAddr: 0x916C, symBinAddr: 0x10000BB6C, symSize: 0x34 }
  - { offsetInCU: 0x13B6D, offset: 0x13B6D, size: 0x8, addend: 0x0, symName: __ZNSt3__128__exception_guard_exceptionsINS_29_AllocatorDestroyRangeReverseINS_9allocatorIP8HeapNodeIiEEEPS5_EEEC2B7v160006ES8_, symObjAddr: 0x91A0, symBinAddr: 0x10000BBA0, symSize: 0x30 }
  - { offsetInCU: 0x13BA6, offset: 0x13BA6, size: 0x8, addend: 0x0, symName: __ZNSt3__129_AllocatorDestroyRangeReverseINS_9allocatorIP8HeapNodeIiEEEPS4_EC2B7v160006ERS5_RS6_S9_, symObjAddr: 0x91D0, symBinAddr: 0x10000BBD0, symSize: 0x38 }
  - { offsetInCU: 0x13BFD, offset: 0x13BFD, size: 0x8, addend: 0x0, symName: __ZNSt3__19allocatorIP8HeapNodeIiEE9constructB7v160006IS3_JRS3_EEEvPT_DpOT0_, symObjAddr: 0x9208, symBinAddr: 0x10000BC08, symSize: 0x28 }
  - { offsetInCU: 0x13C53, offset: 0x13C53, size: 0x8, addend: 0x0, symName: __ZNSt3__128__exception_guard_exceptionsINS_29_AllocatorDestroyRangeReverseINS_9allocatorIP8HeapNodeIiEEEPS5_EEED2B7v160006Ev, symObjAddr: 0x9230, symBinAddr: 0x10000BC30, symSize: 0x48 }
  - { offsetInCU: 0x13C7D, offset: 0x13C7D, size: 0x8, addend: 0x0, symName: __ZNKSt3__129_AllocatorDestroyRangeReverseINS_9allocatorIP8HeapNodeIiEEEPS4_EclB7v160006Ev, symObjAddr: 0x9278, symBinAddr: 0x10000BC78, symSize: 0x68 }
  - { offsetInCU: 0x13CA3, offset: 0x13CA3, size: 0x8, addend: 0x0, symName: __ZNSt3__116reverse_iteratorIPP8HeapNodeIiEEC1B7v160006ES4_, symObjAddr: 0x9350, symBinAddr: 0x10000BD50, symSize: 0x34 }
  - { offsetInCU: 0x13CDB, offset: 0x13CDB, size: 0x8, addend: 0x0, symName: __ZNSt3__116allocator_traitsINS_9allocatorIP8HeapNodeIiEEEE7destroyB7v160006IS4_vEEvRS5_PT_, symObjAddr: 0x93CC, symBinAddr: 0x10000BDCC, symSize: 0x2C }
  - { offsetInCU: 0x13D18, offset: 0x13D18, size: 0x8, addend: 0x0, symName: __ZNSt3__116reverse_iteratorIPP8HeapNodeIiEEppB7v160006Ev, symObjAddr: 0x941C, symBinAddr: 0x10000BE1C, symSize: 0x20 }
  - { offsetInCU: 0x13D3E, offset: 0x13D3E, size: 0x8, addend: 0x0, symName: __ZNKSt3__116reverse_iteratorIPP8HeapNodeIiEE4baseB7v160006Ev, symObjAddr: 0x943C, symBinAddr: 0x10000BE3C, symSize: 0x18 }
  - { offsetInCU: 0x13D64, offset: 0x13D64, size: 0x8, addend: 0x0, symName: __ZNSt3__19allocatorIP8HeapNodeIiEE7destroyB7v160006EPS3_, symObjAddr: 0x9454, symBinAddr: 0x10000BE54, symSize: 0x14 }
  - { offsetInCU: 0x13D9D, offset: 0x13D9D, size: 0x8, addend: 0x0, symName: __ZNSt3__119__to_address_helperINS_16reverse_iteratorIPP8HeapNodeIiEEEvE6__callB7v160006ERKS6_, symObjAddr: 0x9468, symBinAddr: 0x10000BE68, symSize: 0x4C }
  - { offsetInCU: 0x13DC0, offset: 0x13DC0, size: 0x8, addend: 0x0, symName: __ZNKSt3__116reverse_iteratorIPP8HeapNodeIiEEptB7v160006Ev, symObjAddr: 0x94B4, symBinAddr: 0x10000BEB4, symSize: 0x24 }
  - { offsetInCU: 0x13DE6, offset: 0x13DE6, size: 0x8, addend: 0x0, symName: __ZNKSt3__116reverse_iteratorIPP8HeapNodeIiEEdeB7v160006Ev, symObjAddr: 0x94D8, symBinAddr: 0x10000BED8, symSize: 0x28 }
  - { offsetInCU: 0x13E1A, offset: 0x13E1A, size: 0x8, addend: 0x0, symName: __ZNSt3__116reverse_iteratorIPP8HeapNodeIiEEC2B7v160006ES4_, symObjAddr: 0x9500, symBinAddr: 0x10000BF00, symSize: 0x28 }
  - { offsetInCU: 0x13E52, offset: 0x13E52, size: 0x8, addend: 0x0, symName: __ZNSt3__16vectorIP8HeapNodeIiENS_9allocatorIS3_EEE21_ConstructTransactionD2B7v160006Ev, symObjAddr: 0x9528, symBinAddr: 0x10000BF28, symSize: 0x20 }
  - { offsetInCU: 0x13E7C, offset: 0x13E7C, size: 0x8, addend: 0x0, symName: __ZNSt3__128__exception_guard_exceptionsINS_6vectorIP8HeapNodeIiENS_9allocatorIS4_EEE16__destroy_vectorEED2B7v160006Ev, symObjAddr: 0x9548, symBinAddr: 0x10000BF48, symSize: 0x48 }
  - { offsetInCU: 0x13EA6, offset: 0x13EA6, size: 0x8, addend: 0x0, symName: __ZNSt3__16vectorIP8HeapNodeIiENS_9allocatorIS3_EEE16__destroy_vectorclB7v160006Ev, symObjAddr: 0x9590, symBinAddr: 0x10000BF90, symSize: 0x9C }
  - { offsetInCU: 0x13ECC, offset: 0x13ECC, size: 0x8, addend: 0x0, symName: __ZNKSt3__16vectorIP8HeapNodeIiENS_9allocatorIS3_EEE17__annotate_deleteB7v160006Ev, symObjAddr: 0x962C, symBinAddr: 0x10000C02C, symSize: 0xB8 }
  - { offsetInCU: 0x13EF2, offset: 0x13EF2, size: 0x8, addend: 0x0, symName: __ZNSt3__16vectorIP8HeapNodeIiENS_9allocatorIS3_EEE7__clearB7v160006Ev, symObjAddr: 0x96F4, symBinAddr: 0x10000C0F4, symSize: 0x28 }
  - { offsetInCU: 0x13F18, offset: 0x13F18, size: 0x8, addend: 0x0, symName: __ZNSt3__116allocator_traitsINS_9allocatorIP8HeapNodeIiEEEE10deallocateB7v160006ERS5_PS4_m, symObjAddr: 0x971C, symBinAddr: 0x10000C11C, symSize: 0x34 }
  - { offsetInCU: 0x13F5A, offset: 0x13F5A, size: 0x8, addend: 0x0, symName: __ZNSt3__16vectorIP8HeapNodeIiENS_9allocatorIS3_EEE22__base_destruct_at_endB7v160006EPS3_, symObjAddr: 0x9750, symBinAddr: 0x10000C150, symSize: 0xA0 }
  - { offsetInCU: 0x13F9E, offset: 0x13F9E, size: 0x8, addend: 0x0, symName: __ZNSt3__19allocatorIP8HeapNodeIiEE10deallocateB7v160006EPS3_m, symObjAddr: 0x97F0, symBinAddr: 0x10000C1F0, symSize: 0x70 }
  - { offsetInCU: 0x13FE0, offset: 0x13FE0, size: 0x8, addend: 0x0, symName: __ZNSt3__16vectorIP8HeapNodeIiENS_9allocatorIS3_EEED2B7v160006Ev, symObjAddr: 0x9860, symBinAddr: 0x10000C260, symSize: 0x3C }
  - { offsetInCU: 0x1400A, offset: 0x1400A, size: 0x8, addend: 0x0, symName: __ZNSt3__16vectorIP8HeapNodeIiENS_9allocatorIS3_EEE4backB7v160006Ev, symObjAddr: 0x989C, symBinAddr: 0x10000C29C, symSize: 0x1C }
  - { offsetInCU: 0x14030, offset: 0x14030, size: 0x8, addend: 0x0, symName: __ZNSt3__16vectorIP8HeapNodeIiENS_9allocatorIS3_EEEC1EmRKS3_, symObjAddr: 0x98B8, symBinAddr: 0x10000C2B8, symSize: 0x3C }
  - { offsetInCU: 0x1407A, offset: 0x1407A, size: 0x8, addend: 0x0, symName: __ZNSt3__16vectorIP8HeapNodeIiENS_9allocatorIS3_EEEixB7v160006Em, symObjAddr: 0x98F4, symBinAddr: 0x10000C2F4, symSize: 0x24 }
  - { offsetInCU: 0x140B1, offset: 0x140B1, size: 0x8, addend: 0x0, symName: __ZN8HeapNodeIiE8addChildEPS0_, symObjAddr: 0x9954, symBinAddr: 0x10000C354, symSize: 0x2F0 }
  - { offsetInCU: 0x140E5, offset: 0x140E5, size: 0x8, addend: 0x0, symName: __ZN8HeapNodeIiE9setDegreeEi, symObjAddr: 0x9C44, symBinAddr: 0x10000C644, symSize: 0x20 }
  - { offsetInCU: 0x14119, offset: 0x14119, size: 0x8, addend: 0x0, symName: __ZNSt3__16vectorIP8HeapNodeIiENS_9allocatorIS3_EEEC2EmRKS3_, symObjAddr: 0x9C64, symBinAddr: 0x10000C664, symSize: 0xEC }
  - { offsetInCU: 0x14178, offset: 0x14178, size: 0x8, addend: 0x0, symName: __ZNSt3__16vectorIP8HeapNodeIiENS_9allocatorIS3_EEE18__construct_at_endEmRKS3_, symObjAddr: 0x9D50, symBinAddr: 0x10000C750, symSize: 0xD8 }
  - { offsetInCU: 0x141F9, offset: 0x141F9, size: 0x8, addend: 0x0, symName: __ZNSt3__116allocator_traitsINS_9allocatorIP8HeapNodeIiEEEE9constructB7v160006IS4_JRKS4_EvEEvRS5_PT_DpOT0_, symObjAddr: 0x9E28, symBinAddr: 0x10000C828, symSize: 0x34 }
  - { offsetInCU: 0x14250, offset: 0x14250, size: 0x8, addend: 0x0, symName: __ZNSt3__19allocatorIP8HeapNodeIiEE9constructB7v160006IS3_JRKS3_EEEvPT_DpOT0_, symObjAddr: 0x9E5C, symBinAddr: 0x10000C85C, symSize: 0x28 }
  - { offsetInCU: 0x142A6, offset: 0x142A6, size: 0x8, addend: 0x0, symName: __ZNSt3__16vectorIP8HeapNodeIiENS_9allocatorIS3_EEE6insertENS_11__wrap_iterIPKS3_EERS8_, symObjAddr: 0x9E84, symBinAddr: 0x10000C884, symSize: 0x20C }
  - { offsetInCU: 0x1433D, offset: 0x1433D, size: 0x8, addend: 0x0, symName: __ZNSt3__16vectorIP8HeapNodeIiENS_9allocatorIS3_EEE3endB7v160006Ev, symObjAddr: 0xA090, symBinAddr: 0x10000CA90, symSize: 0x30 }
  - { offsetInCU: 0x14369, offset: 0x14369, size: 0x8, addend: 0x0, symName: __ZNSt3__111__wrap_iterIPKP8HeapNodeIiEEC1B7v160006IPS3_EERKNS0_IT_EEPNS_9enable_ifIXsr14is_convertibleIS9_S5_EE5valueEvE4typeE, symObjAddr: 0xA0C0, symBinAddr: 0x10000CAC0, symSize: 0x3C }
  - { offsetInCU: 0x143B4, offset: 0x143B4, size: 0x8, addend: 0x0, symName: __ZNSt3__16vectorIP8HeapNodeIiENS_9allocatorIS3_EEE5beginB7v160006Ev, symObjAddr: 0xA144, symBinAddr: 0x10000CB44, symSize: 0x30 }
  - { offsetInCU: 0x143DB, offset: 0x143DB, size: 0x8, addend: 0x0, symName: __ZNSt3__16vectorIP8HeapNodeIiENS_9allocatorIS3_EEE22__construct_one_at_endB7v160006IJRKS3_EEEvDpOT_, symObjAddr: 0xA174, symBinAddr: 0x10000CB74, symSize: 0x98 }
  - { offsetInCU: 0x1442A, offset: 0x1442A, size: 0x8, addend: 0x0, symName: __ZNSt3__16vectorIP8HeapNodeIiENS_9allocatorIS3_EEE12__move_rangeEPS3_S7_S7_, symObjAddr: 0xA20C, symBinAddr: 0x10000CC0C, symSize: 0x134 }
  - { offsetInCU: 0x144E7, offset: 0x144E7, size: 0x8, addend: 0x0, symName: __ZNSt3__114pointer_traitsIPKP8HeapNodeIiEE10pointer_toB7v160006ERS4_, symObjAddr: 0xA340, symBinAddr: 0x10000CD40, symSize: 0x14 }
  - { offsetInCU: 0x1450A, offset: 0x1450A, size: 0x8, addend: 0x0, symName: __ZNKSt3__16vectorIP8HeapNodeIiENS_9allocatorIS3_EEE11__recommendB7v160006Em, symObjAddr: 0xA354, symBinAddr: 0x10000CD54, symSize: 0xB4 }
  - { offsetInCU: 0x1455E, offset: 0x1455E, size: 0x8, addend: 0x0, symName: __ZNSt3__114__split_bufferIP8HeapNodeIiERNS_9allocatorIS3_EEEC1EmmS6_, symObjAddr: 0xA408, symBinAddr: 0x10000CE08, symSize: 0x44 }
  - { offsetInCU: 0x145B4, offset: 0x145B4, size: 0x8, addend: 0x0, symName: __ZNSt3__114__split_bufferIP8HeapNodeIiERNS_9allocatorIS3_EEE9push_backB7v160006ERKS3_, symObjAddr: 0xA44C, symBinAddr: 0x10000CE4C, symSize: 0x270 }
  - { offsetInCU: 0x1462C, offset: 0x1462C, size: 0x8, addend: 0x0, symName: __ZNSt3__114__split_bufferIP8HeapNodeIiERNS_9allocatorIS3_EEED1Ev, symObjAddr: 0xA810, symBinAddr: 0x10000D210, symSize: 0x2C }
  - { offsetInCU: 0x14658, offset: 0x14658, size: 0x8, addend: 0x0, symName: __ZNSt3__16vectorIP8HeapNodeIiENS_9allocatorIS3_EEE11__make_iterB7v160006EPS3_, symObjAddr: 0xA83C, symBinAddr: 0x10000D23C, symSize: 0x34 }
  - { offsetInCU: 0x1468D, offset: 0x1468D, size: 0x8, addend: 0x0, symName: __ZNKSt3__111__wrap_iterIPKP8HeapNodeIiEE4baseB7v160006Ev, symObjAddr: 0xA870, symBinAddr: 0x10000D270, symSize: 0x18 }
  - { offsetInCU: 0x146B3, offset: 0x146B3, size: 0x8, addend: 0x0, symName: __ZNKSt3__111__wrap_iterIPP8HeapNodeIiEE4baseB7v160006Ev, symObjAddr: 0xA888, symBinAddr: 0x10000D288, symSize: 0x18 }
  - { offsetInCU: 0x146D9, offset: 0x146D9, size: 0x8, addend: 0x0, symName: __ZNSt3__116allocator_traitsINS_9allocatorIP8HeapNodeIiEEEE9constructB7v160006IS4_JS4_EvEEvRS5_PT_DpOT0_, symObjAddr: 0xA8A0, symBinAddr: 0x10000D2A0, symSize: 0x34 }
  - { offsetInCU: 0x14730, offset: 0x14730, size: 0x8, addend: 0x0, symName: __ZNSt3__19allocatorIP8HeapNodeIiEE9constructB7v160006IS3_JS3_EEEvPT_DpOT0_, symObjAddr: 0xA914, symBinAddr: 0x10000D314, symSize: 0x28 }
  - { offsetInCU: 0x1479F, offset: 0x1479F, size: 0x8, addend: 0x0, symName: __ZNKSt3__123__move_backward_trivialclB7v160006IP8HeapNodeIiES4_Li0EEENS_4pairIPT_PT0_EES7_S7_S9_, symObjAddr: 0xAAE8, symBinAddr: 0x10000D4E8, symSize: 0x48 }
  - { offsetInCU: 0x14807, offset: 0x14807, size: 0x8, addend: 0x0, symName: __ZNSt3__14pairIPP8HeapNodeIiES4_EC1B7v160006ERKS4_S7_, symObjAddr: 0xACD4, symBinAddr: 0x10000D6D4, symSize: 0x3C }
  - { offsetInCU: 0x1484D, offset: 0x1484D, size: 0x8, addend: 0x0, symName: __ZNSt3__14pairIPP8HeapNodeIiES4_EC2B7v160006ERKS4_S7_, symObjAddr: 0xAD10, symBinAddr: 0x10000D710, symSize: 0x34 }
  - { offsetInCU: 0x14893, offset: 0x14893, size: 0x8, addend: 0x0, symName: __ZNSt3__118__unwrap_iter_implIPP8HeapNodeIiELb1EE8__unwrapB7v160006ES4_, symObjAddr: 0xAD44, symBinAddr: 0x10000D744, symSize: 0x24 }
  - { offsetInCU: 0x148B6, offset: 0x148B6, size: 0x8, addend: 0x0, symName: __ZNSt3__118__unwrap_iter_implIPP8HeapNodeIiELb1EE8__rewrapB7v160006ES4_S4_, symObjAddr: 0xAD68, symBinAddr: 0x10000D768, symSize: 0x50 }
  - { offsetInCU: 0x148E7, offset: 0x148E7, size: 0x8, addend: 0x0, symName: __ZNSt3__114__split_bufferIP8HeapNodeIiERNS_9allocatorIS3_EEEC2EmmS6_, symObjAddr: 0xADB8, symBinAddr: 0x10000D7B8, symSize: 0xD4 }
  - { offsetInCU: 0x1495B, offset: 0x1495B, size: 0x8, addend: 0x0, symName: __ZNSt3__117__compressed_pairIPP8HeapNodeIiERNS_9allocatorIS3_EEEC1B7v160006IDnS7_EEOT_OT0_, symObjAddr: 0xAE8C, symBinAddr: 0x10000D88C, symSize: 0x3C }
  - { offsetInCU: 0x149B3, offset: 0x149B3, size: 0x8, addend: 0x0, symName: __ZNSt3__114__split_bufferIP8HeapNodeIiERNS_9allocatorIS3_EEE7__allocB7v160006Ev, symObjAddr: 0xAEC8, symBinAddr: 0x10000D8C8, symSize: 0x28 }
  - { offsetInCU: 0x149D9, offset: 0x149D9, size: 0x8, addend: 0x0, symName: __ZNSt3__114__split_bufferIP8HeapNodeIiERNS_9allocatorIS3_EEE9__end_capB7v160006Ev, symObjAddr: 0xAEF0, symBinAddr: 0x10000D8F0, symSize: 0x28 }
  - { offsetInCU: 0x149FF, offset: 0x149FF, size: 0x8, addend: 0x0, symName: __ZNSt3__117__compressed_pairIPP8HeapNodeIiERNS_9allocatorIS3_EEEC2B7v160006IDnS7_EEOT_OT0_, symObjAddr: 0xAF18, symBinAddr: 0x10000D918, symSize: 0x48 }
  - { offsetInCU: 0x14A57, offset: 0x14A57, size: 0x8, addend: 0x0, symName: __ZNSt3__122__compressed_pair_elemIRNS_9allocatorIP8HeapNodeIiEEELi1ELb0EEC2B7v160006IS6_vEEOT_, symObjAddr: 0xAF60, symBinAddr: 0x10000D960, symSize: 0x20 }
  - { offsetInCU: 0x14A99, offset: 0x14A99, size: 0x8, addend: 0x0, symName: __ZNSt3__117__compressed_pairIPP8HeapNodeIiERNS_9allocatorIS3_EEE6secondB7v160006Ev, symObjAddr: 0xAF80, symBinAddr: 0x10000D980, symSize: 0x28 }
  - { offsetInCU: 0x14ABF, offset: 0x14ABF, size: 0x8, addend: 0x0, symName: __ZNSt3__122__compressed_pair_elemIRNS_9allocatorIP8HeapNodeIiEEELi1ELb0EE5__getB7v160006Ev, symObjAddr: 0xAFA8, symBinAddr: 0x10000D9A8, symSize: 0x18 }
  - { offsetInCU: 0x14AE5, offset: 0x14AE5, size: 0x8, addend: 0x0, symName: __ZNSt3__117__compressed_pairIPP8HeapNodeIiERNS_9allocatorIS3_EEE5firstB7v160006Ev, symObjAddr: 0xAFC0, symBinAddr: 0x10000D9C0, symSize: 0x24 }
  - { offsetInCU: 0x14B0B, offset: 0x14B0B, size: 0x8, addend: 0x0, symName: __ZNSt3__114__split_bufferIP8HeapNodeIiERNS_9allocatorIS3_EEE18__construct_at_endINS_13move_iteratorIPS3_EEEENS_9enable_ifIXsr27__is_cpp17_forward_iteratorIT_EE5valueEvE4typeESD_SD_, symObjAddr: 0xB024, symBinAddr: 0x10000DA24, symSize: 0x104 }
  - { offsetInCU: 0x14B66, offset: 0x14B66, size: 0x8, addend: 0x0, symName: __ZNSt3__113move_iteratorIPP8HeapNodeIiEEC1B7v160006ES4_, symObjAddr: 0xB128, symBinAddr: 0x10000DB28, symSize: 0x34 }
  - { offsetInCU: 0x14B9E, offset: 0x14B9E, size: 0x8, addend: 0x0, symName: __ZNKSt3__114__move_trivialclB7v160006IP8HeapNodeIiES4_Li0EEENS_4pairIPT_PT0_EES7_S7_S9_, symObjAddr: 0xB2E4, symBinAddr: 0x10000DCE4, symSize: 0x48 }
  - { offsetInCU: 0x14C10, offset: 0x14C10, size: 0x8, addend: 0x0, symName: __ZNSt3__114__split_bufferIP8HeapNodeIiERNS_9allocatorIS3_EEE21_ConstructTransactionC1B7v160006EPPS3_m, symObjAddr: 0xB424, symBinAddr: 0x10000DE24, symSize: 0x3C }
  - { offsetInCU: 0x14C56, offset: 0x14C56, size: 0x8, addend: 0x0, symName: __ZNKSt3__113move_iteratorIPP8HeapNodeIiEEdeB7v160006Ev, symObjAddr: 0xB460, symBinAddr: 0x10000DE60, symSize: 0x18 }
  - { offsetInCU: 0x14C7C, offset: 0x14C7C, size: 0x8, addend: 0x0, symName: __ZNSt3__113move_iteratorIPP8HeapNodeIiEEppB7v160006Ev, symObjAddr: 0xB478, symBinAddr: 0x10000DE78, symSize: 0x20 }
  - { offsetInCU: 0x14CA2, offset: 0x14CA2, size: 0x8, addend: 0x0, symName: __ZNSt3__114__split_bufferIP8HeapNodeIiERNS_9allocatorIS3_EEE21_ConstructTransactionD1B7v160006Ev, symObjAddr: 0xB498, symBinAddr: 0x10000DE98, symSize: 0x2C }
  - { offsetInCU: 0x14CCC, offset: 0x14CCC, size: 0x8, addend: 0x0, symName: __ZNKSt3__113move_iteratorIPP8HeapNodeIiEE4baseB7v160006Ev, symObjAddr: 0xB53C, symBinAddr: 0x10000DF3C, symSize: 0x18 }
  - { offsetInCU: 0x14CF2, offset: 0x14CF2, size: 0x8, addend: 0x0, symName: __ZNSt3__114__split_bufferIP8HeapNodeIiERNS_9allocatorIS3_EEE21_ConstructTransactionC2B7v160006EPPS3_m, symObjAddr: 0xB554, symBinAddr: 0x10000DF54, symSize: 0x44 }
  - { offsetInCU: 0x14D38, offset: 0x14D38, size: 0x8, addend: 0x0, symName: __ZNSt3__114__split_bufferIP8HeapNodeIiERNS_9allocatorIS3_EEE21_ConstructTransactionD2B7v160006Ev, symObjAddr: 0xB598, symBinAddr: 0x10000DF98, symSize: 0x20 }
  - { offsetInCU: 0x14D62, offset: 0x14D62, size: 0x8, addend: 0x0, symName: __ZNSt3__113move_iteratorIPP8HeapNodeIiEEC2B7v160006ES4_, symObjAddr: 0xB5B8, symBinAddr: 0x10000DFB8, symSize: 0x20 }
  - { offsetInCU: 0x14DB3, offset: 0x14DB3, size: 0x8, addend: 0x0, symName: __ZNKSt3__111__move_loopINS_17_ClassicAlgPolicyEEclB7v160006INS_16reverse_iteratorIPP8HeapNodeIiEEES9_S9_EENS_4pairIT_T1_EESB_T0_SC_, symObjAddr: 0xBAA8, symBinAddr: 0x10000E4A8, symSize: 0xA0 }
  - { offsetInCU: 0x14E1E, offset: 0x14E1E, size: 0x8, addend: 0x0, symName: __ZNSt3__18_IterOpsINS_17_ClassicAlgPolicyEE11__iter_moveB7v160006IRNS_16reverse_iteratorIPP8HeapNodeIiEEEEENS_9enable_ifIXsr12is_referenceIDTdeclsr3stdE7declvalIRT_EEEEE5valueEDTclsr3stdE4movedeclsr3stdE7declvalISD_EEEEE4typeEOSC_, symObjAddr: 0xBCA8, symBinAddr: 0x10000E6A8, symSize: 0x28 }
  - { offsetInCU: 0x14E4A, offset: 0x14E4A, size: 0x8, addend: 0x0, symName: __ZNSt3__18_IterOpsINS_17_ClassicAlgPolicyEE25__validate_iter_referenceB7v160006IRNS_16reverse_iteratorIPP8HeapNodeIiEEEEEvv, symObjAddr: 0xBCD0, symBinAddr: 0x10000E6D0, symSize: 0x4 }
  - { offsetInCU: 0x14E68, offset: 0x14E68, size: 0x8, addend: 0x0, symName: __ZNSt3__118__unwrap_iter_implINS_16reverse_iteratorIPP8HeapNodeIiEEELb0EE8__unwrapB7v160006ES6_, symObjAddr: 0xBCD4, symBinAddr: 0x10000E6D4, symSize: 0x24 }
  - { offsetInCU: 0x14E8B, offset: 0x14E8B, size: 0x8, addend: 0x0, symName: __ZNSt3__14pairINS_16reverse_iteratorIPP8HeapNodeIiEEES6_EC1B7v160006ERKS6_S9_, symObjAddr: 0xBCF8, symBinAddr: 0x10000E6F8, symSize: 0x3C }
  - { offsetInCU: 0x14ED1, offset: 0x14ED1, size: 0x8, addend: 0x0, symName: __ZNSt3__14pairINS_16reverse_iteratorIPP8HeapNodeIiEEES6_EC2B7v160006ERKS6_S9_, symObjAddr: 0xBD34, symBinAddr: 0x10000E734, symSize: 0x34 }
  - { offsetInCU: 0x14F17, offset: 0x14F17, size: 0x8, addend: 0x0, symName: __ZNSt3__118__unwrap_iter_implINS_16reverse_iteratorIPP8HeapNodeIiEEELb0EE8__rewrapB7v160006ES6_S6_, symObjAddr: 0xBD68, symBinAddr: 0x10000E768, symSize: 0x2C }
  - { offsetInCU: 0x14F44, offset: 0x14F44, size: 0x8, addend: 0x0, symName: __ZNSt3__114__split_bufferIP8HeapNodeIiERNS_9allocatorIS3_EEED2Ev, symObjAddr: 0xBD94, symBinAddr: 0x10000E794, symSize: 0x80 }
  - { offsetInCU: 0x14F70, offset: 0x14F70, size: 0x8, addend: 0x0, symName: __ZNSt3__114__split_bufferIP8HeapNodeIiERNS_9allocatorIS3_EEE5clearB7v160006Ev, symObjAddr: 0xBE14, symBinAddr: 0x10000E814, symSize: 0x28 }
  - { offsetInCU: 0x14F96, offset: 0x14F96, size: 0x8, addend: 0x0, symName: __ZNKSt3__114__split_bufferIP8HeapNodeIiERNS_9allocatorIS3_EEE8capacityB7v160006Ev, symObjAddr: 0xBE3C, symBinAddr: 0x10000E83C, symSize: 0x40 }
  - { offsetInCU: 0x14FBC, offset: 0x14FBC, size: 0x8, addend: 0x0, symName: __ZNSt3__114__split_bufferIP8HeapNodeIiERNS_9allocatorIS3_EEE17__destruct_at_endB7v160006EPS3_, symObjAddr: 0xBE7C, symBinAddr: 0x10000E87C, symSize: 0x2C }
  - { offsetInCU: 0x14FF0, offset: 0x14FF0, size: 0x8, addend: 0x0, symName: __ZNSt3__114__split_bufferIP8HeapNodeIiERNS_9allocatorIS3_EEE17__destruct_at_endB7v160006EPS3_NS_17integral_constantIbLb0EEE, symObjAddr: 0xBEA8, symBinAddr: 0x10000E8A8, symSize: 0x94 }
  - { offsetInCU: 0x1502F, offset: 0x1502F, size: 0x8, addend: 0x0, symName: __ZNKSt3__114__split_bufferIP8HeapNodeIiERNS_9allocatorIS3_EEE9__end_capB7v160006Ev, symObjAddr: 0xBF3C, symBinAddr: 0x10000E93C, symSize: 0x28 }
  - { offsetInCU: 0x15055, offset: 0x15055, size: 0x8, addend: 0x0, symName: __ZNKSt3__117__compressed_pairIPP8HeapNodeIiERNS_9allocatorIS3_EEE5firstB7v160006Ev, symObjAddr: 0xBF64, symBinAddr: 0x10000E964, symSize: 0x24 }
  - { offsetInCU: 0x1507B, offset: 0x1507B, size: 0x8, addend: 0x0, symName: __ZNSt3__111__wrap_iterIPP8HeapNodeIiEEC1B7v160006EPKvS4_, symObjAddr: 0xBF88, symBinAddr: 0x10000E988, symSize: 0x3C }
  - { offsetInCU: 0x150C1, offset: 0x150C1, size: 0x8, addend: 0x0, symName: __ZNSt3__111__wrap_iterIPP8HeapNodeIiEEC2B7v160006EPKvS4_, symObjAddr: 0xBFC4, symBinAddr: 0x10000E9C4, symSize: 0x24 }
  - { offsetInCU: 0x15107, offset: 0x15107, size: 0x8, addend: 0x0, symName: __ZNSt3__111__wrap_iterIPKP8HeapNodeIiEEC2B7v160006IPS3_EERKNS0_IT_EEPNS_9enable_ifIXsr14is_convertibleIS9_S5_EE5valueEvE4typeE, symObjAddr: 0xBFE8, symBinAddr: 0x10000E9E8, symSize: 0x40 }
  - { offsetInCU: 0x15152, offset: 0x15152, size: 0x8, addend: 0x0, symName: __ZN8HeapNodeIiED2Ev, symObjAddr: 0xC028, symBinAddr: 0x10000EA28, symSize: 0x38 }
...
