---
triple:          'arm64-apple-darwin'
binary-path:     '/Users/waltermink/Library/CloudStorage/OneDrive-TheUniversityofAlabama/Sophomore Year/Spring/CS 201/Code Projects/Phase 3/PersonalTest'
relocations:
  - { offsetInCU: 0x2DC1, offset: 0x2DC1, size: 0x8, addend: 0x0, symName: __ZNSt3__124__put_character_sequenceB7v160006IcNS_11char_traitsIcEEEERNS_13basic_ostreamIT_T0_EES7_PKS4_m, symObjAddr: 0x1510, symBinAddr: 0x100002364, symSize: 0x1F4 }
  - { offsetInCU: 0x68FC, offset: 0x68FC, size: 0x8, addend: 0x0, symName: __ZNSt3__1lsB7v160006INS_11char_traitsIcEEEERNS_13basic_ostreamIcT_EES6_c, symObjAddr: 0x534, symBinAddr: 0x100001388, symSize: 0x34 }
  - { offsetInCU: 0x6942, offset: 0x6942, size: 0x8, addend: 0x0, symName: __ZNSt3__1lsB7v160006INS_11char_traitsIcEEEERNS_13basic_ostreamIcT_EES6_PKc, symObjAddr: 0x568, symBinAddr: 0x1000013BC, symSize: 0x48 }
  - { offsetInCU: 0x6988, offset: 0x6988, size: 0x8, addend: 0x0, symName: __ZNSt3__14endlB7v160006IcNS_11char_traitsIcEEEERNS_13basic_ostreamIT_T0_EES7_, symObjAddr: 0x75C, symBinAddr: 0x1000015B0, symSize: 0x58 }
  - { offsetInCU: 0x69C8, offset: 0x69C8, size: 0x8, addend: 0x0, symName: __ZNSt3__116__pad_and_outputB7v160006IcNS_11char_traitsIcEEEENS_19ostreambuf_iteratorIT_T0_EES6_PKS4_S8_S8_RNS_8ios_baseES4_, symObjAddr: 0x1768, symBinAddr: 0x1000025BC, symSize: 0x248 }
  - { offsetInCU: 0x6A97, offset: 0x6A97, size: 0x8, addend: 0x0, symName: __ZNSt3__119__debug_db_insert_cB7v160006INS_12basic_stringIcNS_11char_traitsIcEENS_9allocatorIcEEEEEEvPT_, symObjAddr: 0x1C30, symBinAddr: 0x100002A84, symSize: 0x10 }
  - { offsetInCU: 0x6AC8, offset: 0x6AC8, size: 0x8, addend: 0x0, symName: __ZNSt3__112__to_addressB7v160006IKcEEPT_S3_, symObjAddr: 0x1CFC, symBinAddr: 0x100002B50, symSize: 0x14 }
  - { offsetInCU: 0x6AFD, offset: 0x6AFD, size: 0x8, addend: 0x0, symName: __ZNSt3__130__libcpp_is_constant_evaluatedB7v160006Ev, symObjAddr: 0x1E28, symBinAddr: 0x100002C7C, symSize: 0xC }
  - { offsetInCU: 0x6B4D, offset: 0x6B4D, size: 0x8, addend: 0x0, symName: __ZNSt3__19use_facetB7v160006INS_5ctypeIcEEEERKT_RKNS_6localeE, symObjAddr: 0x1FE0, symBinAddr: 0x100002E34, symSize: 0x2C }
  - { offsetInCU: 0x701C, offset: 0x701C, size: 0x8, addend: 0x0, symName: __ZNSt3__118__constexpr_strlenB7v160006EPKc, symObjAddr: 0x2078, symBinAddr: 0x100002ECC, symSize: 0x24 }
  - { offsetInCU: 0x7048, offset: 0x7048, size: 0x8, addend: 0x0, symName: __ZNSt3__14swapB7v160006IP8HeapNodeIcEEEvRT_S5_, symObjAddr: 0x2B1C, symBinAddr: 0x100003970, symSize: 0x3C }
  - { offsetInCU: 0x7099, offset: 0x7099, size: 0x8, addend: 0x0, symName: __ZNSt3__122__make_exception_guardB7v160006INS_6vectorIP8HeapNodeIcENS_9allocatorIS4_EEE16__destroy_vectorEEENS_28__exception_guard_exceptionsIT_EESA_, symObjAddr: 0x2E0C, symBinAddr: 0x100003C60, symSize: 0x40 }
  - { offsetInCU: 0x70CE, offset: 0x70CE, size: 0x8, addend: 0x0, symName: __ZNSt3__119__debug_db_insert_cB7v160006INS_6vectorIP8HeapNodeIcENS_9allocatorIS4_EEEEEEvPT_, symObjAddr: 0x2E80, symBinAddr: 0x100003CD4, symSize: 0x10 }
  - { offsetInCU: 0x70FF, offset: 0x70FF, size: 0x8, addend: 0x0, symName: __ZNSt3__119__allocate_at_leastB7v160006INS_9allocatorIP8HeapNodeIcEEEEENS_19__allocation_resultINS_16allocator_traitsIT_E7pointerEEERS8_m, symObjAddr: 0x322C, symBinAddr: 0x100004080, symSize: 0x40 }
  - { offsetInCU: 0x7142, offset: 0x7142, size: 0x8, addend: 0x0, symName: __ZNSt3__13minB7v160006ImEERKT_S3_S3_, symObjAddr: 0x3368, symBinAddr: 0x1000041BC, symSize: 0x2C }
  - { offsetInCU: 0x7386, offset: 0x7386, size: 0x8, addend: 0x0, symName: __ZNSt3__13minB7v160006ImNS_6__lessImmEEEERKT_S5_S5_T0_, symObjAddr: 0x33F4, symBinAddr: 0x100004248, symSize: 0x54 }
  - { offsetInCU: 0x741B, offset: 0x741B, size: 0x8, addend: 0x0, symName: __ZNSt3__120__throw_length_errorB7v160006EPKc, symObjAddr: 0x34D0, symBinAddr: 0x100004324, symSize: 0x64 }
  - { offsetInCU: 0x7443, offset: 0x7443, size: 0x8, addend: 0x0, symName: __ZNSt3__117__libcpp_allocateB7v160006Emm, symObjAddr: 0x366C, symBinAddr: 0x1000044C0, symSize: 0x28 }
  - { offsetInCU: 0x7480, offset: 0x7480, size: 0x8, addend: 0x0, symName: __ZNSt3__121__libcpp_operator_newB7v160006IJmEEEPvDpT_, symObjAddr: 0x3694, symBinAddr: 0x1000044E8, symSize: 0x24 }
  - { offsetInCU: 0x74B9, offset: 0x74B9, size: 0x8, addend: 0x0, symName: __ZNSt3__112__to_addressB7v160006IP8HeapNodeIcEEEPT_S5_, symObjAddr: 0x37B0, symBinAddr: 0x100004604, symSize: 0x14 }
  - { offsetInCU: 0x74EE, offset: 0x74EE, size: 0x8, addend: 0x0, symName: __ZNSt3__118__debug_db_erase_cB7v160006INS_6vectorIP8HeapNodeIcENS_9allocatorIS4_EEEEEEvPT_, symObjAddr: 0x3AE8, symBinAddr: 0x10000493C, symSize: 0x10 }
  - { offsetInCU: 0x751F, offset: 0x751F, size: 0x8, addend: 0x0, symName: __ZNSt3__119__libcpp_deallocateB7v160006EPvmm, symObjAddr: 0x3CCC, symBinAddr: 0x100004B20, symSize: 0x30 }
  - { offsetInCU: 0x7567, offset: 0x7567, size: 0x8, addend: 0x0, symName: __ZNSt3__127__do_deallocate_handle_sizeB7v160006IJEEEvPvmDpT_, symObjAddr: 0x3CFC, symBinAddr: 0x100004B50, symSize: 0x28 }
  - { offsetInCU: 0x75A5, offset: 0x75A5, size: 0x8, addend: 0x0, symName: __ZNSt3__124__libcpp_operator_deleteB7v160006IJPvEEEvDpT_, symObjAddr: 0x3D24, symBinAddr: 0x100004B78, symSize: 0x24 }
  - { offsetInCU: 0x75DA, offset: 0x75DA, size: 0x8, addend: 0x0, symName: __ZNSt3__14swapB7v160006IP8HeapNodeIiEEEvRT_S5_, symObjAddr: 0x4D78, symBinAddr: 0x100005BCC, symSize: 0x3C }
  - { offsetInCU: 0x762B, offset: 0x762B, size: 0x8, addend: 0x0, symName: __ZNSt3__122__make_exception_guardB7v160006INS_6vectorIP8HeapNodeIiENS_9allocatorIS4_EEE16__destroy_vectorEEENS_28__exception_guard_exceptionsIT_EESA_, symObjAddr: 0x5068, symBinAddr: 0x100005EBC, symSize: 0x40 }
  - { offsetInCU: 0x7660, offset: 0x7660, size: 0x8, addend: 0x0, symName: __ZNSt3__119__debug_db_insert_cB7v160006INS_6vectorIP8HeapNodeIiENS_9allocatorIS4_EEEEEEvPT_, symObjAddr: 0x50DC, symBinAddr: 0x100005F30, symSize: 0x10 }
  - { offsetInCU: 0x7691, offset: 0x7691, size: 0x8, addend: 0x0, symName: __ZNSt3__119__allocate_at_leastB7v160006INS_9allocatorIP8HeapNodeIiEEEEENS_19__allocation_resultINS_16allocator_traitsIT_E7pointerEEERS8_m, symObjAddr: 0x5488, symBinAddr: 0x1000062DC, symSize: 0x40 }
  - { offsetInCU: 0x76D4, offset: 0x76D4, size: 0x8, addend: 0x0, symName: __ZNSt3__112__to_addressB7v160006IP8HeapNodeIiEEEPT_S5_, symObjAddr: 0x57D8, symBinAddr: 0x10000662C, symSize: 0x14 }
  - { offsetInCU: 0x7709, offset: 0x7709, size: 0x8, addend: 0x0, symName: __ZNSt3__118__debug_db_erase_cB7v160006INS_6vectorIP8HeapNodeIiENS_9allocatorIS4_EEEEEEvPT_, symObjAddr: 0x5B10, symBinAddr: 0x100006964, symSize: 0x10 }
  - { offsetInCU: 0x79A1, offset: 0x79A1, size: 0x8, addend: 0x0, symName: __ZSt28__throw_bad_array_new_lengthB7v160006v, symObjAddr: 0x3638, symBinAddr: 0x10000448C, symSize: 0x34 }
  - { offsetInCU: 0xAB2B, offset: 0xAB2B, size: 0x8, addend: 0x0, symName: _main, symObjAddr: 0x0, symBinAddr: 0x100000E54, symSize: 0x2D0 }
  - { offsetInCU: 0xAD22, offset: 0xAD22, size: 0x8, addend: 0x0, symName: __ZN5BHeapIcEC1EPci, symObjAddr: 0x2D0, symBinAddr: 0x100001124, symSize: 0x3C }
  - { offsetInCU: 0xAEA0, offset: 0xAEA0, size: 0x8, addend: 0x0, symName: __ZN5BHeapIiEC1Ev, symObjAddr: 0x30C, symBinAddr: 0x100001160, symSize: 0x2C }
  - { offsetInCU: 0xAECA, offset: 0xAECA, size: 0x8, addend: 0x0, symName: __ZN5BHeapIiEC1EPii, symObjAddr: 0x338, symBinAddr: 0x10000118C, symSize: 0x3C }
  - { offsetInCU: 0xAF10, offset: 0xAF10, size: 0x8, addend: 0x0, symName: __ZN5BHeapIiE6insertEi, symObjAddr: 0x374, symBinAddr: 0x1000011C8, symSize: 0x1C0 }
  - { offsetInCU: 0xAF52, offset: 0xAF52, size: 0x8, addend: 0x0, symName: __ZN5BHeapIcE10extractMinEv, symObjAddr: 0x5B0, symBinAddr: 0x100001404, symSize: 0x180 }
  - { offsetInCU: 0xAFA2, offset: 0xAFA2, size: 0x8, addend: 0x0, symName: __ZNSt3__113basic_ostreamIcNS_11char_traitsIcEEElsB7v160006EPFRS3_S4_E, symObjAddr: 0x730, symBinAddr: 0x100001584, symSize: 0x2C }
  - { offsetInCU: 0xAFD6, offset: 0xAFD6, size: 0x8, addend: 0x0, symName: __ZN5BHeapIcE8printKeyEv, symObjAddr: 0x7B4, symBinAddr: 0x100001608, symSize: 0xDC }
  - { offsetInCU: 0xB00A, offset: 0xB00A, size: 0x8, addend: 0x0, symName: __ZN5BHeapIiE10extractMinEv, symObjAddr: 0x890, symBinAddr: 0x1000016E4, symSize: 0x180 }
  - { offsetInCU: 0xB05A, offset: 0xB05A, size: 0x8, addend: 0x0, symName: __ZN5BHeapIiE8printKeyEv, symObjAddr: 0xA10, symBinAddr: 0x100001864, symSize: 0xDC }
  - { offsetInCU: 0xB08E, offset: 0xB08E, size: 0x8, addend: 0x0, symName: __ZN5BHeapIcEC2EPci, symObjAddr: 0xAEC, symBinAddr: 0x100001940, symSize: 0xF4 }
  - { offsetInCU: 0xB0F1, offset: 0xB0F1, size: 0x8, addend: 0x0, symName: __ZN5BHeapIcE6insertEc, symObjAddr: 0xBE0, symBinAddr: 0x100001A34, symSize: 0x1C0 }
  - { offsetInCU: 0xB133, offset: 0xB133, size: 0x8, addend: 0x0, symName: __ZN8HeapNodeIcE6getKeyEv, symObjAddr: 0xDA0, symBinAddr: 0x100001BF4, symSize: 0x18 }
  - { offsetInCU: 0xB159, offset: 0xB159, size: 0x8, addend: 0x0, symName: __ZN5BHeapIcE13printRootListEv, symObjAddr: 0xDB8, symBinAddr: 0x100001C0C, symSize: 0x15C }
  - { offsetInCU: 0xB18E, offset: 0xB18E, size: 0x8, addend: 0x0, symName: __ZN8HeapNodeIcEC1Ec, symObjAddr: 0xF14, symBinAddr: 0x100001D68, symSize: 0x34 }
  - { offsetInCU: 0xB1C6, offset: 0xB1C6, size: 0x8, addend: 0x0, symName: __ZN8HeapNodeIcE15setRightSiblingEPS0_, symObjAddr: 0xF48, symBinAddr: 0x100001D9C, symSize: 0x48 }
  - { offsetInCU: 0xB1FA, offset: 0xB1FA, size: 0x8, addend: 0x0, symName: __ZN8HeapNodeIcE14setLeftSiblingEPS0_, symObjAddr: 0xF90, symBinAddr: 0x100001DE4, symSize: 0x48 }
  - { offsetInCU: 0xB22E, offset: 0xB22E, size: 0x8, addend: 0x0, symName: __ZN8HeapNodeIcE14getLeftSiblingEv, symObjAddr: 0xFD8, symBinAddr: 0x100001E2C, symSize: 0x18 }
  - { offsetInCU: 0xB254, offset: 0xB254, size: 0x8, addend: 0x0, symName: __ZN8HeapNodeIcEC2Ec, symObjAddr: 0xFF0, symBinAddr: 0x100001E44, symSize: 0x48 }
  - { offsetInCU: 0xB28C, offset: 0xB28C, size: 0x8, addend: 0x0, symName: __ZN20CircularDynamicArrayIP8HeapNodeIcEEC1Ev, symObjAddr: 0x1038, symBinAddr: 0x100001E8C, symSize: 0x2C }
  - { offsetInCU: 0xB2B6, offset: 0xB2B6, size: 0x8, addend: 0x0, symName: __ZN20CircularDynamicArrayIP8HeapNodeIcEEC2Ev, symObjAddr: 0x1064, symBinAddr: 0x100001EB8, symSize: 0x58 }
  - { offsetInCU: 0xB2E0, offset: 0xB2E0, size: 0x8, addend: 0x0, symName: __ZN8HeapNodeIcE15getRightSiblingEv, symObjAddr: 0x10BC, symBinAddr: 0x100001F10, symSize: 0x18 }
  - { offsetInCU: 0xB306, offset: 0xB306, size: 0x8, addend: 0x0, symName: __ZN5BHeapIiEC2Ev, symObjAddr: 0x10D4, symBinAddr: 0x100001F28, symSize: 0x20 }
  - { offsetInCU: 0xB330, offset: 0xB330, size: 0x8, addend: 0x0, symName: __ZN5BHeapIiEC2EPii, symObjAddr: 0x10F4, symBinAddr: 0x100001F48, symSize: 0xF0 }
  - { offsetInCU: 0xB393, offset: 0xB393, size: 0x8, addend: 0x0, symName: __ZN8HeapNodeIiE6getKeyEv, symObjAddr: 0x11E4, symBinAddr: 0x100002038, symSize: 0x18 }
  - { offsetInCU: 0xB3B9, offset: 0xB3B9, size: 0x8, addend: 0x0, symName: __ZN5BHeapIiE13printRootListEv, symObjAddr: 0x11FC, symBinAddr: 0x100002050, symSize: 0x154 }
  - { offsetInCU: 0xB3EE, offset: 0xB3EE, size: 0x8, addend: 0x0, symName: __ZN8HeapNodeIiE15getRightSiblingEv, symObjAddr: 0x1350, symBinAddr: 0x1000021A4, symSize: 0x18 }
  - { offsetInCU: 0xB414, offset: 0xB414, size: 0x8, addend: 0x0, symName: __ZN8HeapNodeIiEC1Ei, symObjAddr: 0x1368, symBinAddr: 0x1000021BC, symSize: 0x34 }
  - { offsetInCU: 0xB44C, offset: 0xB44C, size: 0x8, addend: 0x0, symName: __ZN8HeapNodeIiE15setRightSiblingEPS0_, symObjAddr: 0x139C, symBinAddr: 0x1000021F0, symSize: 0x48 }
  - { offsetInCU: 0xB480, offset: 0xB480, size: 0x8, addend: 0x0, symName: __ZN8HeapNodeIiE14setLeftSiblingEPS0_, symObjAddr: 0x13E4, symBinAddr: 0x100002238, symSize: 0x48 }
  - { offsetInCU: 0xB4B4, offset: 0xB4B4, size: 0x8, addend: 0x0, symName: __ZN8HeapNodeIiE14getLeftSiblingEv, symObjAddr: 0x142C, symBinAddr: 0x100002280, symSize: 0x18 }
  - { offsetInCU: 0xB4DA, offset: 0xB4DA, size: 0x8, addend: 0x0, symName: __ZN8HeapNodeIiEC2Ei, symObjAddr: 0x1444, symBinAddr: 0x100002298, symSize: 0x48 }
  - { offsetInCU: 0xB512, offset: 0xB512, size: 0x8, addend: 0x0, symName: __ZN20CircularDynamicArrayIP8HeapNodeIiEEC1Ev, symObjAddr: 0x148C, symBinAddr: 0x1000022E0, symSize: 0x2C }
  - { offsetInCU: 0xB53C, offset: 0xB53C, size: 0x8, addend: 0x0, symName: __ZN20CircularDynamicArrayIP8HeapNodeIiEEC2Ev, symObjAddr: 0x14B8, symBinAddr: 0x10000230C, symSize: 0x58 }
  - { offsetInCU: 0xB566, offset: 0xB566, size: 0x8, addend: 0x0, symName: __ZNSt3__111char_traitsIcE6lengthEPKc, symObjAddr: 0x1704, symBinAddr: 0x100002558, symSize: 0x48 }
  - { offsetInCU: 0xB5A7, offset: 0xB5A7, size: 0x8, addend: 0x0, symName: __ZNKSt3__113basic_ostreamIcNS_11char_traitsIcEEE6sentrycvbB7v160006Ev, symObjAddr: 0x174C, symBinAddr: 0x1000025A0, symSize: 0x1C }
  - { offsetInCU: 0xB5CD, offset: 0xB5CD, size: 0x8, addend: 0x0, symName: __ZNSt3__119ostreambuf_iteratorIcNS_11char_traitsIcEEEC1B7v160006ERNS_13basic_ostreamIcS2_EE, symObjAddr: 0x19B0, symBinAddr: 0x100002804, symSize: 0x34 }
  - { offsetInCU: 0xB605, offset: 0xB605, size: 0x8, addend: 0x0, symName: __ZNKSt3__18ios_base5flagsB7v160006Ev, symObjAddr: 0x19E4, symBinAddr: 0x100002838, symSize: 0x18 }
  - { offsetInCU: 0xB62D, offset: 0xB62D, size: 0x8, addend: 0x0, symName: __ZNKSt3__19basic_iosIcNS_11char_traitsIcEEE4fillB7v160006Ev, symObjAddr: 0x19FC, symBinAddr: 0x100002850, symSize: 0x64 }
  - { offsetInCU: 0xB655, offset: 0xB655, size: 0x8, addend: 0x0, symName: __ZNKSt3__119ostreambuf_iteratorIcNS_11char_traitsIcEEE6failedB7v160006Ev, symObjAddr: 0x1A60, symBinAddr: 0x1000028B4, symSize: 0x24 }
  - { offsetInCU: 0xB67B, offset: 0xB67B, size: 0x8, addend: 0x0, symName: __ZNSt3__19basic_iosIcNS_11char_traitsIcEEE8setstateB7v160006Ej, symObjAddr: 0x1A84, symBinAddr: 0x1000028D8, symSize: 0x2C }
  - { offsetInCU: 0xB6B0, offset: 0xB6B0, size: 0x8, addend: 0x0, symName: __ZNKSt3__18ios_base5widthB7v160006Ev, symObjAddr: 0x1ABC, symBinAddr: 0x100002910, symSize: 0x18 }
  - { offsetInCU: 0xB6D8, offset: 0xB6D8, size: 0x8, addend: 0x0, symName: __ZNSt3__115basic_streambufIcNS_11char_traitsIcEEE5sputnB7v160006EPKcl, symObjAddr: 0x1AD4, symBinAddr: 0x100002928, symSize: 0x3C }
  - { offsetInCU: 0xB71A, offset: 0xB71A, size: 0x8, addend: 0x0, symName: __ZNSt3__112basic_stringIcNS_11char_traitsIcEENS_9allocatorIcEEEC1B7v160006Emc, symObjAddr: 0x1B10, symBinAddr: 0x100002964, symSize: 0x3C }
  - { offsetInCU: 0xB762, offset: 0xB762, size: 0x8, addend: 0x0, symName: __ZNKSt3__112basic_stringIcNS_11char_traitsIcEENS_9allocatorIcEEE4dataB7v160006Ev, symObjAddr: 0x1B4C, symBinAddr: 0x1000029A0, symSize: 0x28 }
  - { offsetInCU: 0xB788, offset: 0xB788, size: 0x8, addend: 0x0, symName: __ZNSt3__18ios_base5widthB7v160006El, symObjAddr: 0x1B74, symBinAddr: 0x1000029C8, symSize: 0x2C }
  - { offsetInCU: 0xB7CE, offset: 0xB7CE, size: 0x8, addend: 0x0, symName: __ZNSt3__112basic_stringIcNS_11char_traitsIcEENS_9allocatorIcEEEC2B7v160006Emc, symObjAddr: 0x1BA0, symBinAddr: 0x1000029F4, symSize: 0x54 }
  - { offsetInCU: 0xB81B, offset: 0xB81B, size: 0x8, addend: 0x0, symName: __ZNSt3__117__compressed_pairINS_12basic_stringIcNS_11char_traitsIcEENS_9allocatorIcEEE5__repES5_EC1B7v160006INS_18__default_init_tagESA_EEOT_OT0_, symObjAddr: 0x1BF4, symBinAddr: 0x100002A48, symSize: 0x3C }
  - { offsetInCU: 0xB873, offset: 0xB873, size: 0x8, addend: 0x0, symName: __ZNSt3__117__compressed_pairINS_12basic_stringIcNS_11char_traitsIcEENS_9allocatorIcEEE5__repES5_EC2B7v160006INS_18__default_init_tagESA_EEOT_OT0_, symObjAddr: 0x1C40, symBinAddr: 0x100002A94, symSize: 0x3C }
  - { offsetInCU: 0xB8CB, offset: 0xB8CB, size: 0x8, addend: 0x0, symName: __ZNSt3__122__compressed_pair_elemINS_12basic_stringIcNS_11char_traitsIcEENS_9allocatorIcEEE5__repELi0ELb0EEC2B7v160006ENS_18__default_init_tagE, symObjAddr: 0x1C7C, symBinAddr: 0x100002AD0, symSize: 0x14 }
  - { offsetInCU: 0xB900, offset: 0xB900, size: 0x8, addend: 0x0, symName: __ZNSt3__122__compressed_pair_elemINS_9allocatorIcEELi1ELb1EEC2B7v160006ENS_18__default_init_tagE, symObjAddr: 0x1C90, symBinAddr: 0x100002AE4, symSize: 0x2C }
  - { offsetInCU: 0xB935, offset: 0xB935, size: 0x8, addend: 0x0, symName: __ZNSt3__19allocatorIcEC2B7v160006Ev, symObjAddr: 0x1CBC, symBinAddr: 0x100002B10, symSize: 0x2C }
  - { offsetInCU: 0xB95F, offset: 0xB95F, size: 0x8, addend: 0x0, symName: __ZNSt3__116__non_trivial_ifILb1ENS_9allocatorIcEEEC2B7v160006Ev, symObjAddr: 0x1CE8, symBinAddr: 0x100002B3C, symSize: 0x14 }
  - { offsetInCU: 0xB989, offset: 0xB989, size: 0x8, addend: 0x0, symName: __ZNKSt3__112basic_stringIcNS_11char_traitsIcEENS_9allocatorIcEEE13__get_pointerB7v160006Ev, symObjAddr: 0x1D10, symBinAddr: 0x100002B64, symSize: 0x54 }
  - { offsetInCU: 0xB9AF, offset: 0xB9AF, size: 0x8, addend: 0x0, symName: __ZNKSt3__112basic_stringIcNS_11char_traitsIcEENS_9allocatorIcEEE9__is_longB7v160006Ev, symObjAddr: 0x1D64, symBinAddr: 0x100002BB8, symSize: 0x74 }
  - { offsetInCU: 0xB9D5, offset: 0xB9D5, size: 0x8, addend: 0x0, symName: __ZNKSt3__112basic_stringIcNS_11char_traitsIcEENS_9allocatorIcEEE18__get_long_pointerB7v160006Ev, symObjAddr: 0x1DD8, symBinAddr: 0x100002C2C, symSize: 0x28 }
  - { offsetInCU: 0xB9FB, offset: 0xB9FB, size: 0x8, addend: 0x0, symName: __ZNKSt3__112basic_stringIcNS_11char_traitsIcEENS_9allocatorIcEEE19__get_short_pointerB7v160006Ev, symObjAddr: 0x1E00, symBinAddr: 0x100002C54, symSize: 0x28 }
  - { offsetInCU: 0xBA21, offset: 0xBA21, size: 0x8, addend: 0x0, symName: __ZNKSt3__117__compressed_pairINS_12basic_stringIcNS_11char_traitsIcEENS_9allocatorIcEEE5__repES5_E5firstB7v160006Ev, symObjAddr: 0x1E34, symBinAddr: 0x100002C88, symSize: 0x24 }
  - { offsetInCU: 0xBA47, offset: 0xBA47, size: 0x8, addend: 0x0, symName: __ZNKSt3__122__compressed_pair_elemINS_12basic_stringIcNS_11char_traitsIcEENS_9allocatorIcEEE5__repELi0ELb0EE5__getB7v160006Ev, symObjAddr: 0x1E58, symBinAddr: 0x100002CAC, symSize: 0x14 }
  - { offsetInCU: 0xBA6D, offset: 0xBA6D, size: 0x8, addend: 0x0, symName: __ZNSt3__114pointer_traitsIPKcE10pointer_toB7v160006ERS1_, symObjAddr: 0x1E6C, symBinAddr: 0x100002CC0, symSize: 0x14 }
  - { offsetInCU: 0xBA90, offset: 0xBA90, size: 0x8, addend: 0x0, symName: __ZNSt3__119ostreambuf_iteratorIcNS_11char_traitsIcEEEC2B7v160006ERNS_13basic_ostreamIcS2_EE, symObjAddr: 0x1E80, symBinAddr: 0x100002CD4, symSize: 0x68 }
  - { offsetInCU: 0xBAC8, offset: 0xBAC8, size: 0x8, addend: 0x0, symName: __ZNKSt3__19basic_iosIcNS_11char_traitsIcEEE5rdbufB7v160006Ev, symObjAddr: 0x1EE8, symBinAddr: 0x100002D3C, symSize: 0x24 }
  - { offsetInCU: 0xBAF0, offset: 0xBAF0, size: 0x8, addend: 0x0, symName: __ZNKSt3__18ios_base5rdbufB7v160006Ev, symObjAddr: 0x1F0C, symBinAddr: 0x100002D60, symSize: 0x18 }
  - { offsetInCU: 0xBB16, offset: 0xBB16, size: 0x8, addend: 0x0, symName: __ZNSt3__111char_traitsIcE11eq_int_typeEii, symObjAddr: 0x1F24, symBinAddr: 0x100002D78, symSize: 0x28 }
  - { offsetInCU: 0xBB47, offset: 0xBB47, size: 0x8, addend: 0x0, symName: __ZNSt3__111char_traitsIcE3eofEv, symObjAddr: 0x1F4C, symBinAddr: 0x100002DA0, symSize: 0x8 }
  - { offsetInCU: 0xBB5B, offset: 0xBB5B, size: 0x8, addend: 0x0, symName: __ZNKSt3__19basic_iosIcNS_11char_traitsIcEEE5widenB7v160006Ec, symObjAddr: 0x1F54, symBinAddr: 0x100002DA8, symSize: 0x8C }
  - { offsetInCU: 0xBBC9, offset: 0xBBC9, size: 0x8, addend: 0x0, symName: __ZNKSt3__15ctypeIcE5widenB7v160006Ec, symObjAddr: 0x200C, symBinAddr: 0x100002E60, symSize: 0x38 }
  - { offsetInCU: 0xBBFE, offset: 0xBBFE, size: 0x8, addend: 0x0, symName: __ZNSt3__18ios_base8setstateB7v160006Ej, symObjAddr: 0x2044, symBinAddr: 0x100002E98, symSize: 0x34 }
  - { offsetInCU: 0xBC35, offset: 0xBC35, size: 0x8, addend: 0x0, symName: __ZN5BHeapIcE7peekKeyEv, symObjAddr: 0x209C, symBinAddr: 0x100002EF0, symSize: 0xA0 }
  - { offsetInCU: 0xBC5B, offset: 0xBC5B, size: 0x8, addend: 0x0, symName: __ZN8HeapNodeIcE20getSmallestRankChildEv, symObjAddr: 0x213C, symBinAddr: 0x100002F90, symSize: 0x168 }
  - { offsetInCU: 0xBC9D, offset: 0xBC9D, size: 0x8, addend: 0x0, symName: __ZN8HeapNodeIcE15shiftChildrenUpEv, symObjAddr: 0x22A4, symBinAddr: 0x1000030F8, symSize: 0xE0 }
  - { offsetInCU: 0xBCC3, offset: 0xBCC3, size: 0x8, addend: 0x0, symName: __ZN8HeapNodeIcE9getDegreeEv, symObjAddr: 0x2384, symBinAddr: 0x1000031D8, symSize: 0x18 }
  - { offsetInCU: 0xBCE9, offset: 0xBCE9, size: 0x8, addend: 0x0, symName: __ZN8HeapNodeIcE10disconnectEv, symObjAddr: 0x239C, symBinAddr: 0x1000031F0, symSize: 0x78 }
  - { offsetInCU: 0xBD0F, offset: 0xBD0F, size: 0x8, addend: 0x0, symName: __ZN5BHeapIcE11consolidateEv, symObjAddr: 0x2414, symBinAddr: 0x100003268, symSize: 0x4CC }
  - { offsetInCU: 0xBDDE, offset: 0xBDDE, size: 0x8, addend: 0x0, symName: __ZN8HeapNodeIcED1Ev, symObjAddr: 0x28E0, symBinAddr: 0x100003734, symSize: 0x2C }
  - { offsetInCU: 0xBE08, offset: 0xBE08, size: 0x8, addend: 0x0, symName: __ZN20CircularDynamicArrayIP8HeapNodeIcEE7isEmptyEv, symObjAddr: 0x290C, symBinAddr: 0x100003760, symSize: 0x24 }
  - { offsetInCU: 0xBE2E, offset: 0xBE2E, size: 0x8, addend: 0x0, symName: __ZN20CircularDynamicArrayIP8HeapNodeIcEE13getFrontValueEv, symObjAddr: 0x2930, symBinAddr: 0x100003784, symSize: 0x20 }
  - { offsetInCU: 0xBE54, offset: 0xBE54, size: 0x8, addend: 0x0, symName: __ZN20CircularDynamicArrayIP8HeapNodeIcEE11getEndValueEv, symObjAddr: 0x2950, symBinAddr: 0x1000037A4, symSize: 0xBC }
  - { offsetInCU: 0xBE7A, offset: 0xBE7A, size: 0x8, addend: 0x0, symName: __ZNSt12out_of_rangeC1B7v160006EPKc, symObjAddr: 0x2A0C, symBinAddr: 0x100003860, symSize: 0x34 }
  - { offsetInCU: 0xBEB2, offset: 0xBEB2, size: 0x8, addend: 0x0, symName: __ZNSt12out_of_rangeC2B7v160006EPKc, symObjAddr: 0x2A40, symBinAddr: 0x100003894, symSize: 0x4C }
  - { offsetInCU: 0xBEE9, offset: 0xBEE9, size: 0x8, addend: 0x0, symName: __Z4log2B7v160006IiENSt3__19enable_ifIXsr3std11is_integralIT_EE5valueEdE4typeES2_, symObjAddr: 0x2A8C, symBinAddr: 0x1000038E0, symSize: 0x30 }
  - { offsetInCU: 0xBF21, offset: 0xBF21, size: 0x8, addend: 0x0, symName: __ZNSt3__16vectorIP8HeapNodeIcENS_9allocatorIS3_EEEC1EmRKS3_, symObjAddr: 0x2ABC, symBinAddr: 0x100003910, symSize: 0x3C }
  - { offsetInCU: 0xBF6B, offset: 0xBF6B, size: 0x8, addend: 0x0, symName: __ZNSt3__16vectorIP8HeapNodeIcENS_9allocatorIS3_EEEixB7v160006Em, symObjAddr: 0x2AF8, symBinAddr: 0x10000394C, symSize: 0x24 }
  - { offsetInCU: 0xBFA2, offset: 0xBFA2, size: 0x8, addend: 0x0, symName: __ZN8HeapNodeIcE8addChildEPS0_, symObjAddr: 0x2B58, symBinAddr: 0x1000039AC, symSize: 0x15C }
  - { offsetInCU: 0xBFD6, offset: 0xBFD6, size: 0x8, addend: 0x0, symName: __ZNSt3__16vectorIP8HeapNodeIcENS_9allocatorIS3_EEED1B7v160006Ev, symObjAddr: 0x2CB4, symBinAddr: 0x100003B08, symSize: 0x2C }
  - { offsetInCU: 0xC000, offset: 0xC000, size: 0x8, addend: 0x0, symName: __ZNSt3__16vectorIP8HeapNodeIcENS_9allocatorIS3_EEEC2EmRKS3_, symObjAddr: 0x2CE0, symBinAddr: 0x100003B34, symSize: 0xF0 }
  - { offsetInCU: 0xC064, offset: 0xC064, size: 0x8, addend: 0x0, symName: __ZNSt3__117__compressed_pairIPP8HeapNodeIcENS_9allocatorIS3_EEEC1B7v160006IDnNS_18__default_init_tagEEEOT_OT0_, symObjAddr: 0x2DD0, symBinAddr: 0x100003C24, symSize: 0x3C }
  - { offsetInCU: 0xC0BC, offset: 0xC0BC, size: 0x8, addend: 0x0, symName: __ZNSt3__16vectorIP8HeapNodeIcENS_9allocatorIS3_EEE16__destroy_vectorC1ERS6_, symObjAddr: 0x2E4C, symBinAddr: 0x100003CA0, symSize: 0x34 }
  - { offsetInCU: 0xC0F5, offset: 0xC0F5, size: 0x8, addend: 0x0, symName: __ZNSt3__16vectorIP8HeapNodeIcENS_9allocatorIS3_EEE11__vallocateB7v160006Em, symObjAddr: 0x2E90, symBinAddr: 0x100003CE4, symSize: 0xAC }
  - { offsetInCU: 0xC139, offset: 0xC139, size: 0x8, addend: 0x0, symName: __ZNSt3__16vectorIP8HeapNodeIcENS_9allocatorIS3_EEE18__construct_at_endEmRKS3_, symObjAddr: 0x2F3C, symBinAddr: 0x100003D90, symSize: 0xD8 }
  - { offsetInCU: 0xC1BB, offset: 0xC1BB, size: 0x8, addend: 0x0, symName: __ZNSt3__128__exception_guard_exceptionsINS_6vectorIP8HeapNodeIcENS_9allocatorIS4_EEE16__destroy_vectorEE10__completeB7v160006Ev, symObjAddr: 0x3014, symBinAddr: 0x100003E68, symSize: 0x1C }
  - { offsetInCU: 0xC1E1, offset: 0xC1E1, size: 0x8, addend: 0x0, symName: __ZNSt3__128__exception_guard_exceptionsINS_6vectorIP8HeapNodeIcENS_9allocatorIS4_EEE16__destroy_vectorEED1B7v160006Ev, symObjAddr: 0x3030, symBinAddr: 0x100003E84, symSize: 0x2C }
  - { offsetInCU: 0xC20B, offset: 0xC20B, size: 0x8, addend: 0x0, symName: __ZNSt3__117__compressed_pairIPP8HeapNodeIcENS_9allocatorIS3_EEEC2B7v160006IDnNS_18__default_init_tagEEEOT_OT0_, symObjAddr: 0x305C, symBinAddr: 0x100003EB0, symSize: 0x40 }
  - { offsetInCU: 0xC263, offset: 0xC263, size: 0x8, addend: 0x0, symName: __ZNSt3__122__compressed_pair_elemIPP8HeapNodeIcELi0ELb0EEC2B7v160006IDnvEEOT_, symObjAddr: 0x309C, symBinAddr: 0x100003EF0, symSize: 0x1C }
  - { offsetInCU: 0xC2A5, offset: 0xC2A5, size: 0x8, addend: 0x0, symName: __ZNSt3__122__compressed_pair_elemINS_9allocatorIP8HeapNodeIcEEELi1ELb1EEC2B7v160006ENS_18__default_init_tagE, symObjAddr: 0x30B8, symBinAddr: 0x100003F0C, symSize: 0x2C }
  - { offsetInCU: 0xC2DA, offset: 0xC2DA, size: 0x8, addend: 0x0, symName: __ZNSt3__19allocatorIP8HeapNodeIcEEC2B7v160006Ev, symObjAddr: 0x30E4, symBinAddr: 0x100003F38, symSize: 0x2C }
  - { offsetInCU: 0xC304, offset: 0xC304, size: 0x8, addend: 0x0, symName: __ZNSt3__116__non_trivial_ifILb1ENS_9allocatorIP8HeapNodeIcEEEEC2B7v160006Ev, symObjAddr: 0x3110, symBinAddr: 0x100003F64, symSize: 0x14 }
  - { offsetInCU: 0xC32E, offset: 0xC32E, size: 0x8, addend: 0x0, symName: __ZNSt3__128__exception_guard_exceptionsINS_6vectorIP8HeapNodeIcENS_9allocatorIS4_EEE16__destroy_vectorEEC1B7v160006ES8_, symObjAddr: 0x3124, symBinAddr: 0x100003F78, symSize: 0x34 }
  - { offsetInCU: 0xC366, offset: 0xC366, size: 0x8, addend: 0x0, symName: __ZNSt3__128__exception_guard_exceptionsINS_6vectorIP8HeapNodeIcENS_9allocatorIS4_EEE16__destroy_vectorEEC2B7v160006ES8_, symObjAddr: 0x3158, symBinAddr: 0x100003FAC, symSize: 0x24 }
  - { offsetInCU: 0xC39E, offset: 0xC39E, size: 0x8, addend: 0x0, symName: __ZNSt3__16vectorIP8HeapNodeIcENS_9allocatorIS3_EEE16__destroy_vectorC2ERS6_, symObjAddr: 0x317C, symBinAddr: 0x100003FD0, symSize: 0x20 }
  - { offsetInCU: 0xC3D7, offset: 0xC3D7, size: 0x8, addend: 0x0, symName: __ZNKSt3__16vectorIP8HeapNodeIcENS_9allocatorIS3_EEE8max_sizeEv, symObjAddr: 0x319C, symBinAddr: 0x100003FF0, symSize: 0x74 }
  - { offsetInCU: 0xC3FF, offset: 0xC3FF, size: 0x8, addend: 0x0, symName: __ZNKSt3__16vectorIP8HeapNodeIcENS_9allocatorIS3_EEE20__throw_length_errorB7v160006Ev, symObjAddr: 0x3210, symBinAddr: 0x100004064, symSize: 0x1C }
  - { offsetInCU: 0xC425, offset: 0xC425, size: 0x8, addend: 0x0, symName: __ZNSt3__16vectorIP8HeapNodeIcENS_9allocatorIS3_EEE7__allocB7v160006Ev, symObjAddr: 0x326C, symBinAddr: 0x1000040C0, symSize: 0x28 }
  - { offsetInCU: 0xC44B, offset: 0xC44B, size: 0x8, addend: 0x0, symName: __ZNSt3__16vectorIP8HeapNodeIcENS_9allocatorIS3_EEE9__end_capB7v160006Ev, symObjAddr: 0x3294, symBinAddr: 0x1000040E8, symSize: 0x28 }
  - { offsetInCU: 0xC471, offset: 0xC471, size: 0x8, addend: 0x0, symName: __ZNKSt3__16vectorIP8HeapNodeIcENS_9allocatorIS3_EEE14__annotate_newB7v160006Em, symObjAddr: 0x32BC, symBinAddr: 0x100004110, symSize: 0xAC }
  - { offsetInCU: 0xC4B0, offset: 0xC4B0, size: 0x8, addend: 0x0, symName: __ZNSt3__116allocator_traitsINS_9allocatorIP8HeapNodeIcEEEE8max_sizeB7v160006IS5_vEEmRKS5_, symObjAddr: 0x3394, symBinAddr: 0x1000041E8, symSize: 0x24 }
  - { offsetInCU: 0xC4DE, offset: 0xC4DE, size: 0x8, addend: 0x0, symName: __ZNKSt3__16vectorIP8HeapNodeIcENS_9allocatorIS3_EEE7__allocB7v160006Ev, symObjAddr: 0x33B8, symBinAddr: 0x10000420C, symSize: 0x28 }
  - { offsetInCU: 0xC504, offset: 0xC504, size: 0x8, addend: 0x0, symName: __ZNSt3__114numeric_limitsIlE3maxB7v160006Ev, symObjAddr: 0x33E0, symBinAddr: 0x100004234, symSize: 0x14 }
  - { offsetInCU: 0xC52C, offset: 0xC52C, size: 0x8, addend: 0x0, symName: __ZNKSt3__16__lessImmEclB7v160006ERKmS3_, symObjAddr: 0x3448, symBinAddr: 0x10000429C, symSize: 0x34 }
  - { offsetInCU: 0xC56E, offset: 0xC56E, size: 0x8, addend: 0x0, symName: __ZNKSt3__19allocatorIP8HeapNodeIcEE8max_sizeB7v160006Ev, symObjAddr: 0x347C, symBinAddr: 0x1000042D0, symSize: 0x14 }
  - { offsetInCU: 0xC594, offset: 0xC594, size: 0x8, addend: 0x0, symName: __ZNKSt3__117__compressed_pairIPP8HeapNodeIcENS_9allocatorIS3_EEE6secondB7v160006Ev, symObjAddr: 0x3490, symBinAddr: 0x1000042E4, symSize: 0x24 }
  - { offsetInCU: 0xC5BA, offset: 0xC5BA, size: 0x8, addend: 0x0, symName: __ZNKSt3__122__compressed_pair_elemINS_9allocatorIP8HeapNodeIcEEELi1ELb1EE5__getB7v160006Ev, symObjAddr: 0x34B4, symBinAddr: 0x100004308, symSize: 0x14 }
  - { offsetInCU: 0xC5E0, offset: 0xC5E0, size: 0x8, addend: 0x0, symName: __ZNSt3__123__libcpp_numeric_limitsIlLb1EE3maxB7v160006Ev, symObjAddr: 0x34C8, symBinAddr: 0x10000431C, symSize: 0x8 }
  - { offsetInCU: 0xC5F4, offset: 0xC5F4, size: 0x8, addend: 0x0, symName: __ZNSt12length_errorC1B7v160006EPKc, symObjAddr: 0x3534, symBinAddr: 0x100004388, symSize: 0x34 }
  - { offsetInCU: 0xC62C, offset: 0xC62C, size: 0x8, addend: 0x0, symName: __ZNSt12length_errorC2B7v160006EPKc, symObjAddr: 0x3568, symBinAddr: 0x1000043BC, symSize: 0x4C }
  - { offsetInCU: 0xC664, offset: 0xC664, size: 0x8, addend: 0x0, symName: __ZNSt3__19allocatorIP8HeapNodeIcEE8allocateB7v160006Em, symObjAddr: 0x35B4, symBinAddr: 0x100004408, symSize: 0x84 }
  - { offsetInCU: 0xC698, offset: 0xC698, size: 0x8, addend: 0x0, symName: __ZNSt3__117__compressed_pairIPP8HeapNodeIcENS_9allocatorIS3_EEE6secondB7v160006Ev, symObjAddr: 0x36B8, symBinAddr: 0x10000450C, symSize: 0x24 }
  - { offsetInCU: 0xC6BE, offset: 0xC6BE, size: 0x8, addend: 0x0, symName: __ZNSt3__122__compressed_pair_elemINS_9allocatorIP8HeapNodeIcEEELi1ELb1EE5__getB7v160006Ev, symObjAddr: 0x36DC, symBinAddr: 0x100004530, symSize: 0x14 }
  - { offsetInCU: 0xC6E4, offset: 0xC6E4, size: 0x8, addend: 0x0, symName: __ZNSt3__117__compressed_pairIPP8HeapNodeIcENS_9allocatorIS3_EEE5firstB7v160006Ev, symObjAddr: 0x36F0, symBinAddr: 0x100004544, symSize: 0x24 }
  - { offsetInCU: 0xC70A, offset: 0xC70A, size: 0x8, addend: 0x0, symName: __ZNSt3__122__compressed_pair_elemIPP8HeapNodeIcELi0ELb0EE5__getB7v160006Ev, symObjAddr: 0x3714, symBinAddr: 0x100004568, symSize: 0x14 }
  - { offsetInCU: 0xC730, offset: 0xC730, size: 0x8, addend: 0x0, symName: __ZNKSt3__16vectorIP8HeapNodeIcENS_9allocatorIS3_EEE31__annotate_contiguous_containerB7v160006EPKvS8_S8_S8_, symObjAddr: 0x3728, symBinAddr: 0x10000457C, symSize: 0x20 }
  - { offsetInCU: 0xC786, offset: 0xC786, size: 0x8, addend: 0x0, symName: __ZNKSt3__16vectorIP8HeapNodeIcENS_9allocatorIS3_EEE4dataB7v160006Ev, symObjAddr: 0x3748, symBinAddr: 0x10000459C, symSize: 0x28 }
  - { offsetInCU: 0xC7AC, offset: 0xC7AC, size: 0x8, addend: 0x0, symName: __ZNKSt3__16vectorIP8HeapNodeIcENS_9allocatorIS3_EEE8capacityB7v160006Ev, symObjAddr: 0x3770, symBinAddr: 0x1000045C4, symSize: 0x40 }
  - { offsetInCU: 0xC7D2, offset: 0xC7D2, size: 0x8, addend: 0x0, symName: __ZNKSt3__16vectorIP8HeapNodeIcENS_9allocatorIS3_EEE9__end_capB7v160006Ev, symObjAddr: 0x37C4, symBinAddr: 0x100004618, symSize: 0x28 }
  - { offsetInCU: 0xC7F8, offset: 0xC7F8, size: 0x8, addend: 0x0, symName: __ZNKSt3__117__compressed_pairIPP8HeapNodeIcENS_9allocatorIS3_EEE5firstB7v160006Ev, symObjAddr: 0x37EC, symBinAddr: 0x100004640, symSize: 0x24 }
  - { offsetInCU: 0xC81E, offset: 0xC81E, size: 0x8, addend: 0x0, symName: __ZNKSt3__122__compressed_pair_elemIPP8HeapNodeIcELi0ELb0EE5__getB7v160006Ev, symObjAddr: 0x3810, symBinAddr: 0x100004664, symSize: 0x14 }
  - { offsetInCU: 0xC85D, offset: 0xC85D, size: 0x8, addend: 0x0, symName: __ZNSt3__16vectorIP8HeapNodeIcENS_9allocatorIS3_EEE21_ConstructTransactionC1B7v160006ERS6_m, symObjAddr: 0x3824, symBinAddr: 0x100004678, symSize: 0x3C }
  - { offsetInCU: 0xC8A5, offset: 0xC8A5, size: 0x8, addend: 0x0, symName: __ZNSt3__116allocator_traitsINS_9allocatorIP8HeapNodeIcEEEE9constructB7v160006IS4_JRKS4_EvEEvRS5_PT_DpOT0_, symObjAddr: 0x3860, symBinAddr: 0x1000046B4, symSize: 0x34 }
  - { offsetInCU: 0xC8FC, offset: 0xC8FC, size: 0x8, addend: 0x0, symName: __ZNSt3__16vectorIP8HeapNodeIcENS_9allocatorIS3_EEE21_ConstructTransactionD1B7v160006Ev, symObjAddr: 0x3894, symBinAddr: 0x1000046E8, symSize: 0x2C }
  - { offsetInCU: 0xC926, offset: 0xC926, size: 0x8, addend: 0x0, symName: __ZNSt3__16vectorIP8HeapNodeIcENS_9allocatorIS3_EEE21_ConstructTransactionC2B7v160006ERS6_m, symObjAddr: 0x38C0, symBinAddr: 0x100004714, symSize: 0x44 }
  - { offsetInCU: 0xC96E, offset: 0xC96E, size: 0x8, addend: 0x0, symName: __ZNSt3__19allocatorIP8HeapNodeIcEE9constructB7v160006IS3_JRKS3_EEEvPT_DpOT0_, symObjAddr: 0x3904, symBinAddr: 0x100004758, symSize: 0x28 }
  - { offsetInCU: 0xC9C4, offset: 0xC9C4, size: 0x8, addend: 0x0, symName: __ZNSt3__16vectorIP8HeapNodeIcENS_9allocatorIS3_EEE21_ConstructTransactionD2B7v160006Ev, symObjAddr: 0x392C, symBinAddr: 0x100004780, symSize: 0x20 }
  - { offsetInCU: 0xC9EE, offset: 0xC9EE, size: 0x8, addend: 0x0, symName: __ZNSt3__128__exception_guard_exceptionsINS_6vectorIP8HeapNodeIcENS_9allocatorIS4_EEE16__destroy_vectorEED2B7v160006Ev, symObjAddr: 0x394C, symBinAddr: 0x1000047A0, symSize: 0x48 }
  - { offsetInCU: 0xCA18, offset: 0xCA18, size: 0x8, addend: 0x0, symName: __ZNSt3__16vectorIP8HeapNodeIcENS_9allocatorIS3_EEE16__destroy_vectorclB7v160006Ev, symObjAddr: 0x3994, symBinAddr: 0x1000047E8, symSize: 0x9C }
  - { offsetInCU: 0xCA3E, offset: 0xCA3E, size: 0x8, addend: 0x0, symName: __ZNKSt3__16vectorIP8HeapNodeIcENS_9allocatorIS3_EEE17__annotate_deleteB7v160006Ev, symObjAddr: 0x3A30, symBinAddr: 0x100004884, symSize: 0xB8 }
  - { offsetInCU: 0xCA64, offset: 0xCA64, size: 0x8, addend: 0x0, symName: __ZNSt3__16vectorIP8HeapNodeIcENS_9allocatorIS3_EEE7__clearB7v160006Ev, symObjAddr: 0x3AF8, symBinAddr: 0x10000494C, symSize: 0x28 }
  - { offsetInCU: 0xCA8A, offset: 0xCA8A, size: 0x8, addend: 0x0, symName: __ZNSt3__116allocator_traitsINS_9allocatorIP8HeapNodeIcEEEE10deallocateB7v160006ERS5_PS4_m, symObjAddr: 0x3B20, symBinAddr: 0x100004974, symSize: 0x34 }
  - { offsetInCU: 0xCACC, offset: 0xCACC, size: 0x8, addend: 0x0, symName: __ZNKSt3__16vectorIP8HeapNodeIcENS_9allocatorIS3_EEE4sizeB7v160006Ev, symObjAddr: 0x3B54, symBinAddr: 0x1000049A8, symSize: 0x28 }
  - { offsetInCU: 0xCAF2, offset: 0xCAF2, size: 0x8, addend: 0x0, symName: __ZNSt3__16vectorIP8HeapNodeIcENS_9allocatorIS3_EEE22__base_destruct_at_endB7v160006EPS3_, symObjAddr: 0x3B7C, symBinAddr: 0x1000049D0, symSize: 0xA0 }
  - { offsetInCU: 0xCB36, offset: 0xCB36, size: 0x8, addend: 0x0, symName: __ZNSt3__116allocator_traitsINS_9allocatorIP8HeapNodeIcEEEE7destroyB7v160006IS4_vEEvRS5_PT_, symObjAddr: 0x3C1C, symBinAddr: 0x100004A70, symSize: 0x2C }
  - { offsetInCU: 0xCB73, offset: 0xCB73, size: 0x8, addend: 0x0, symName: __ZNSt3__19allocatorIP8HeapNodeIcEE7destroyB7v160006EPS3_, symObjAddr: 0x3C48, symBinAddr: 0x100004A9C, symSize: 0x14 }
  - { offsetInCU: 0xCBA7, offset: 0xCBA7, size: 0x8, addend: 0x0, symName: __ZNSt3__19allocatorIP8HeapNodeIcEE10deallocateB7v160006EPS3_m, symObjAddr: 0x3C5C, symBinAddr: 0x100004AB0, symSize: 0x70 }
  - { offsetInCU: 0xCBE9, offset: 0xCBE9, size: 0x8, addend: 0x0, symName: __ZN20CircularDynamicArrayIP8HeapNodeIcEE8addFrontES2_, symObjAddr: 0x3D48, symBinAddr: 0x100004B9C, symSize: 0xB8 }
  - { offsetInCU: 0xCC1D, offset: 0xCC1D, size: 0x8, addend: 0x0, symName: __ZN20CircularDynamicArrayIP8HeapNodeIcEE6lengthEv, symObjAddr: 0x3E00, symBinAddr: 0x100004C54, symSize: 0x18 }
  - { offsetInCU: 0xCC43, offset: 0xCC43, size: 0x8, addend: 0x0, symName: __ZN20CircularDynamicArrayIP8HeapNodeIcEEixEi, symObjAddr: 0x3E18, symBinAddr: 0x100004C6C, symSize: 0x118 }
  - { offsetInCU: 0xCC77, offset: 0xCC77, size: 0x8, addend: 0x0, symName: __ZN20CircularDynamicArrayIP8HeapNodeIcEE12increaseSizeEv, symObjAddr: 0x3F30, symBinAddr: 0x100004D84, symSize: 0x108 }
  - { offsetInCU: 0xCCD6, offset: 0xCCD6, size: 0x8, addend: 0x0, symName: __ZNSt3__16vectorIP8HeapNodeIcENS_9allocatorIS3_EEED2B7v160006Ev, symObjAddr: 0x4038, symBinAddr: 0x100004E8C, symSize: 0x3C }
  - { offsetInCU: 0xCD00, offset: 0xCD00, size: 0x8, addend: 0x0, symName: __ZN8HeapNodeIcED2Ev, symObjAddr: 0x4074, symBinAddr: 0x100004EC8, symSize: 0x38 }
  - { offsetInCU: 0xCD2A, offset: 0xCD2A, size: 0x8, addend: 0x0, symName: __ZN20CircularDynamicArrayIP8HeapNodeIcEED1Ev, symObjAddr: 0x40AC, symBinAddr: 0x100004F00, symSize: 0x2C }
  - { offsetInCU: 0xCD54, offset: 0xCD54, size: 0x8, addend: 0x0, symName: __ZN20CircularDynamicArrayIP8HeapNodeIcEED2Ev, symObjAddr: 0x40D8, symBinAddr: 0x100004F2C, symSize: 0x50 }
  - { offsetInCU: 0xCD7E, offset: 0xCD7E, size: 0x8, addend: 0x0, symName: __ZN5BHeapIcE14printKeyHelperEP8HeapNodeIcE, symObjAddr: 0x4128, symBinAddr: 0x100004F7C, symSize: 0xF4 }
  - { offsetInCU: 0xCDDD, offset: 0xCDDD, size: 0x8, addend: 0x0, symName: __ZN8HeapNodeIcE11getChildrenEv, symObjAddr: 0x421C, symBinAddr: 0x100005070, symSize: 0x3C }
  - { offsetInCU: 0xCE03, offset: 0xCE03, size: 0x8, addend: 0x0, symName: __ZN20CircularDynamicArrayIP8HeapNodeIcEEC1ERKS3_, symObjAddr: 0x4258, symBinAddr: 0x1000050AC, symSize: 0x34 }
  - { offsetInCU: 0xCE3B, offset: 0xCE3B, size: 0x8, addend: 0x0, symName: __ZN20CircularDynamicArrayIP8HeapNodeIcEEC2ERKS3_, symObjAddr: 0x428C, symBinAddr: 0x1000050E0, symSize: 0x134 }
  - { offsetInCU: 0xCE90, offset: 0xCE90, size: 0x8, addend: 0x0, symName: __ZN5BHeapIiE7peekKeyEv, symObjAddr: 0x43C0, symBinAddr: 0x100005214, symSize: 0x9C }
  - { offsetInCU: 0xCEB6, offset: 0xCEB6, size: 0x8, addend: 0x0, symName: __ZN8HeapNodeIiE20getSmallestRankChildEv, symObjAddr: 0x445C, symBinAddr: 0x1000052B0, symSize: 0x164 }
  - { offsetInCU: 0xCEF8, offset: 0xCEF8, size: 0x8, addend: 0x0, symName: __ZN8HeapNodeIiE15shiftChildrenUpEv, symObjAddr: 0x45C0, symBinAddr: 0x100005414, symSize: 0xE0 }
  - { offsetInCU: 0xCF1E, offset: 0xCF1E, size: 0x8, addend: 0x0, symName: __ZN8HeapNodeIiE9getDegreeEv, symObjAddr: 0x46A0, symBinAddr: 0x1000054F4, symSize: 0x18 }
  - { offsetInCU: 0xCF44, offset: 0xCF44, size: 0x8, addend: 0x0, symName: __ZN8HeapNodeIiE10disconnectEv, symObjAddr: 0x46B8, symBinAddr: 0x10000550C, symSize: 0x78 }
  - { offsetInCU: 0xCF6A, offset: 0xCF6A, size: 0x8, addend: 0x0, symName: __ZN5BHeapIiE11consolidateEv, symObjAddr: 0x4730, symBinAddr: 0x100005584, symSize: 0x4BC }
  - { offsetInCU: 0xD039, offset: 0xD039, size: 0x8, addend: 0x0, symName: __ZN8HeapNodeIiED1Ev, symObjAddr: 0x4BEC, symBinAddr: 0x100005A40, symSize: 0x2C }
  - { offsetInCU: 0xD063, offset: 0xD063, size: 0x8, addend: 0x0, symName: __ZN20CircularDynamicArrayIP8HeapNodeIiEE7isEmptyEv, symObjAddr: 0x4C18, symBinAddr: 0x100005A6C, symSize: 0x24 }
  - { offsetInCU: 0xD089, offset: 0xD089, size: 0x8, addend: 0x0, symName: __ZN20CircularDynamicArrayIP8HeapNodeIiEE13getFrontValueEv, symObjAddr: 0x4C3C, symBinAddr: 0x100005A90, symSize: 0x20 }
  - { offsetInCU: 0xD0AF, offset: 0xD0AF, size: 0x8, addend: 0x0, symName: __ZN20CircularDynamicArrayIP8HeapNodeIiEE11getEndValueEv, symObjAddr: 0x4C5C, symBinAddr: 0x100005AB0, symSize: 0xBC }
  - { offsetInCU: 0xD0D5, offset: 0xD0D5, size: 0x8, addend: 0x0, symName: __ZNSt3__16vectorIP8HeapNodeIiENS_9allocatorIS3_EEEC1EmRKS3_, symObjAddr: 0x4D18, symBinAddr: 0x100005B6C, symSize: 0x3C }
  - { offsetInCU: 0xD11F, offset: 0xD11F, size: 0x8, addend: 0x0, symName: __ZNSt3__16vectorIP8HeapNodeIiENS_9allocatorIS3_EEEixB7v160006Em, symObjAddr: 0x4D54, symBinAddr: 0x100005BA8, symSize: 0x24 }
  - { offsetInCU: 0xD156, offset: 0xD156, size: 0x8, addend: 0x0, symName: __ZN8HeapNodeIiE8addChildEPS0_, symObjAddr: 0x4DB4, symBinAddr: 0x100005C08, symSize: 0x15C }
  - { offsetInCU: 0xD18A, offset: 0xD18A, size: 0x8, addend: 0x0, symName: __ZNSt3__16vectorIP8HeapNodeIiENS_9allocatorIS3_EEED1B7v160006Ev, symObjAddr: 0x4F10, symBinAddr: 0x100005D64, symSize: 0x2C }
  - { offsetInCU: 0xD1B4, offset: 0xD1B4, size: 0x8, addend: 0x0, symName: __ZNSt3__16vectorIP8HeapNodeIiENS_9allocatorIS3_EEEC2EmRKS3_, symObjAddr: 0x4F3C, symBinAddr: 0x100005D90, symSize: 0xF0 }
  - { offsetInCU: 0xD213, offset: 0xD213, size: 0x8, addend: 0x0, symName: __ZNSt3__117__compressed_pairIPP8HeapNodeIiENS_9allocatorIS3_EEEC1B7v160006IDnNS_18__default_init_tagEEEOT_OT0_, symObjAddr: 0x502C, symBinAddr: 0x100005E80, symSize: 0x3C }
  - { offsetInCU: 0xD26B, offset: 0xD26B, size: 0x8, addend: 0x0, symName: __ZNSt3__16vectorIP8HeapNodeIiENS_9allocatorIS3_EEE16__destroy_vectorC1ERS6_, symObjAddr: 0x50A8, symBinAddr: 0x100005EFC, symSize: 0x34 }
  - { offsetInCU: 0xD2A4, offset: 0xD2A4, size: 0x8, addend: 0x0, symName: __ZNSt3__16vectorIP8HeapNodeIiENS_9allocatorIS3_EEE11__vallocateB7v160006Em, symObjAddr: 0x50EC, symBinAddr: 0x100005F40, symSize: 0xAC }
  - { offsetInCU: 0xD2E8, offset: 0xD2E8, size: 0x8, addend: 0x0, symName: __ZNSt3__16vectorIP8HeapNodeIiENS_9allocatorIS3_EEE18__construct_at_endEmRKS3_, symObjAddr: 0x5198, symBinAddr: 0x100005FEC, symSize: 0xD8 }
  - { offsetInCU: 0xD36A, offset: 0xD36A, size: 0x8, addend: 0x0, symName: __ZNSt3__128__exception_guard_exceptionsINS_6vectorIP8HeapNodeIiENS_9allocatorIS4_EEE16__destroy_vectorEE10__completeB7v160006Ev, symObjAddr: 0x5270, symBinAddr: 0x1000060C4, symSize: 0x1C }
  - { offsetInCU: 0xD390, offset: 0xD390, size: 0x8, addend: 0x0, symName: __ZNSt3__128__exception_guard_exceptionsINS_6vectorIP8HeapNodeIiENS_9allocatorIS4_EEE16__destroy_vectorEED1B7v160006Ev, symObjAddr: 0x528C, symBinAddr: 0x1000060E0, symSize: 0x2C }
  - { offsetInCU: 0xD3BA, offset: 0xD3BA, size: 0x8, addend: 0x0, symName: __ZNSt3__117__compressed_pairIPP8HeapNodeIiENS_9allocatorIS3_EEEC2B7v160006IDnNS_18__default_init_tagEEEOT_OT0_, symObjAddr: 0x52B8, symBinAddr: 0x10000610C, symSize: 0x40 }
  - { offsetInCU: 0xD412, offset: 0xD412, size: 0x8, addend: 0x0, symName: __ZNSt3__122__compressed_pair_elemIPP8HeapNodeIiELi0ELb0EEC2B7v160006IDnvEEOT_, symObjAddr: 0x52F8, symBinAddr: 0x10000614C, symSize: 0x1C }
  - { offsetInCU: 0xD454, offset: 0xD454, size: 0x8, addend: 0x0, symName: __ZNSt3__122__compressed_pair_elemINS_9allocatorIP8HeapNodeIiEEELi1ELb1EEC2B7v160006ENS_18__default_init_tagE, symObjAddr: 0x5314, symBinAddr: 0x100006168, symSize: 0x2C }
  - { offsetInCU: 0xD489, offset: 0xD489, size: 0x8, addend: 0x0, symName: __ZNSt3__19allocatorIP8HeapNodeIiEEC2B7v160006Ev, symObjAddr: 0x5340, symBinAddr: 0x100006194, symSize: 0x2C }
  - { offsetInCU: 0xD4B3, offset: 0xD4B3, size: 0x8, addend: 0x0, symName: __ZNSt3__116__non_trivial_ifILb1ENS_9allocatorIP8HeapNodeIiEEEEC2B7v160006Ev, symObjAddr: 0x536C, symBinAddr: 0x1000061C0, symSize: 0x14 }
  - { offsetInCU: 0xD4DD, offset: 0xD4DD, size: 0x8, addend: 0x0, symName: __ZNSt3__128__exception_guard_exceptionsINS_6vectorIP8HeapNodeIiENS_9allocatorIS4_EEE16__destroy_vectorEEC1B7v160006ES8_, symObjAddr: 0x5380, symBinAddr: 0x1000061D4, symSize: 0x34 }
  - { offsetInCU: 0xD515, offset: 0xD515, size: 0x8, addend: 0x0, symName: __ZNSt3__128__exception_guard_exceptionsINS_6vectorIP8HeapNodeIiENS_9allocatorIS4_EEE16__destroy_vectorEEC2B7v160006ES8_, symObjAddr: 0x53B4, symBinAddr: 0x100006208, symSize: 0x24 }
  - { offsetInCU: 0xD54D, offset: 0xD54D, size: 0x8, addend: 0x0, symName: __ZNSt3__16vectorIP8HeapNodeIiENS_9allocatorIS3_EEE16__destroy_vectorC2ERS6_, symObjAddr: 0x53D8, symBinAddr: 0x10000622C, symSize: 0x20 }
  - { offsetInCU: 0xD586, offset: 0xD586, size: 0x8, addend: 0x0, symName: __ZNKSt3__16vectorIP8HeapNodeIiENS_9allocatorIS3_EEE8max_sizeEv, symObjAddr: 0x53F8, symBinAddr: 0x10000624C, symSize: 0x74 }
  - { offsetInCU: 0xD5AE, offset: 0xD5AE, size: 0x8, addend: 0x0, symName: __ZNKSt3__16vectorIP8HeapNodeIiENS_9allocatorIS3_EEE20__throw_length_errorB7v160006Ev, symObjAddr: 0x546C, symBinAddr: 0x1000062C0, symSize: 0x1C }
  - { offsetInCU: 0xD5D4, offset: 0xD5D4, size: 0x8, addend: 0x0, symName: __ZNSt3__16vectorIP8HeapNodeIiENS_9allocatorIS3_EEE7__allocB7v160006Ev, symObjAddr: 0x54C8, symBinAddr: 0x10000631C, symSize: 0x28 }
  - { offsetInCU: 0xD5FA, offset: 0xD5FA, size: 0x8, addend: 0x0, symName: __ZNSt3__16vectorIP8HeapNodeIiENS_9allocatorIS3_EEE9__end_capB7v160006Ev, symObjAddr: 0x54F0, symBinAddr: 0x100006344, symSize: 0x28 }
  - { offsetInCU: 0xD620, offset: 0xD620, size: 0x8, addend: 0x0, symName: __ZNKSt3__16vectorIP8HeapNodeIiENS_9allocatorIS3_EEE14__annotate_newB7v160006Em, symObjAddr: 0x5518, symBinAddr: 0x10000636C, symSize: 0xAC }
  - { offsetInCU: 0xD65F, offset: 0xD65F, size: 0x8, addend: 0x0, symName: __ZNSt3__116allocator_traitsINS_9allocatorIP8HeapNodeIiEEEE8max_sizeB7v160006IS5_vEEmRKS5_, symObjAddr: 0x55C4, symBinAddr: 0x100006418, symSize: 0x24 }
  - { offsetInCU: 0xD68D, offset: 0xD68D, size: 0x8, addend: 0x0, symName: __ZNKSt3__16vectorIP8HeapNodeIiENS_9allocatorIS3_EEE7__allocB7v160006Ev, symObjAddr: 0x55E8, symBinAddr: 0x10000643C, symSize: 0x28 }
  - { offsetInCU: 0xD6B3, offset: 0xD6B3, size: 0x8, addend: 0x0, symName: __ZNKSt3__19allocatorIP8HeapNodeIiEE8max_sizeB7v160006Ev, symObjAddr: 0x5610, symBinAddr: 0x100006464, symSize: 0x14 }
  - { offsetInCU: 0xD6D9, offset: 0xD6D9, size: 0x8, addend: 0x0, symName: __ZNKSt3__117__compressed_pairIPP8HeapNodeIiENS_9allocatorIS3_EEE6secondB7v160006Ev, symObjAddr: 0x5624, symBinAddr: 0x100006478, symSize: 0x24 }
  - { offsetInCU: 0xD6FF, offset: 0xD6FF, size: 0x8, addend: 0x0, symName: __ZNKSt3__122__compressed_pair_elemINS_9allocatorIP8HeapNodeIiEEELi1ELb1EE5__getB7v160006Ev, symObjAddr: 0x5648, symBinAddr: 0x10000649C, symSize: 0x14 }
  - { offsetInCU: 0xD725, offset: 0xD725, size: 0x8, addend: 0x0, symName: __ZNSt3__19allocatorIP8HeapNodeIiEE8allocateB7v160006Em, symObjAddr: 0x565C, symBinAddr: 0x1000064B0, symSize: 0x84 }
  - { offsetInCU: 0xD759, offset: 0xD759, size: 0x8, addend: 0x0, symName: __ZNSt3__117__compressed_pairIPP8HeapNodeIiENS_9allocatorIS3_EEE6secondB7v160006Ev, symObjAddr: 0x56E0, symBinAddr: 0x100006534, symSize: 0x24 }
  - { offsetInCU: 0xD77F, offset: 0xD77F, size: 0x8, addend: 0x0, symName: __ZNSt3__122__compressed_pair_elemINS_9allocatorIP8HeapNodeIiEEELi1ELb1EE5__getB7v160006Ev, symObjAddr: 0x5704, symBinAddr: 0x100006558, symSize: 0x14 }
  - { offsetInCU: 0xD7A5, offset: 0xD7A5, size: 0x8, addend: 0x0, symName: __ZNSt3__117__compressed_pairIPP8HeapNodeIiENS_9allocatorIS3_EEE5firstB7v160006Ev, symObjAddr: 0x5718, symBinAddr: 0x10000656C, symSize: 0x24 }
  - { offsetInCU: 0xD7CB, offset: 0xD7CB, size: 0x8, addend: 0x0, symName: __ZNSt3__122__compressed_pair_elemIPP8HeapNodeIiELi0ELb0EE5__getB7v160006Ev, symObjAddr: 0x573C, symBinAddr: 0x100006590, symSize: 0x14 }
  - { offsetInCU: 0xD7F1, offset: 0xD7F1, size: 0x8, addend: 0x0, symName: __ZNKSt3__16vectorIP8HeapNodeIiENS_9allocatorIS3_EEE31__annotate_contiguous_containerB7v160006EPKvS8_S8_S8_, symObjAddr: 0x5750, symBinAddr: 0x1000065A4, symSize: 0x20 }
  - { offsetInCU: 0xD847, offset: 0xD847, size: 0x8, addend: 0x0, symName: __ZNKSt3__16vectorIP8HeapNodeIiENS_9allocatorIS3_EEE4dataB7v160006Ev, symObjAddr: 0x5770, symBinAddr: 0x1000065C4, symSize: 0x28 }
  - { offsetInCU: 0xD86D, offset: 0xD86D, size: 0x8, addend: 0x0, symName: __ZNKSt3__16vectorIP8HeapNodeIiENS_9allocatorIS3_EEE8capacityB7v160006Ev, symObjAddr: 0x5798, symBinAddr: 0x1000065EC, symSize: 0x40 }
  - { offsetInCU: 0xD893, offset: 0xD893, size: 0x8, addend: 0x0, symName: __ZNKSt3__16vectorIP8HeapNodeIiENS_9allocatorIS3_EEE9__end_capB7v160006Ev, symObjAddr: 0x57EC, symBinAddr: 0x100006640, symSize: 0x28 }
  - { offsetInCU: 0xD8B9, offset: 0xD8B9, size: 0x8, addend: 0x0, symName: __ZNKSt3__117__compressed_pairIPP8HeapNodeIiENS_9allocatorIS3_EEE5firstB7v160006Ev, symObjAddr: 0x5814, symBinAddr: 0x100006668, symSize: 0x24 }
  - { offsetInCU: 0xD8DF, offset: 0xD8DF, size: 0x8, addend: 0x0, symName: __ZNKSt3__122__compressed_pair_elemIPP8HeapNodeIiELi0ELb0EE5__getB7v160006Ev, symObjAddr: 0x5838, symBinAddr: 0x10000668C, symSize: 0x14 }
  - { offsetInCU: 0xD91E, offset: 0xD91E, size: 0x8, addend: 0x0, symName: __ZNSt3__16vectorIP8HeapNodeIiENS_9allocatorIS3_EEE21_ConstructTransactionC1B7v160006ERS6_m, symObjAddr: 0x584C, symBinAddr: 0x1000066A0, symSize: 0x3C }
  - { offsetInCU: 0xD966, offset: 0xD966, size: 0x8, addend: 0x0, symName: __ZNSt3__116allocator_traitsINS_9allocatorIP8HeapNodeIiEEEE9constructB7v160006IS4_JRKS4_EvEEvRS5_PT_DpOT0_, symObjAddr: 0x5888, symBinAddr: 0x1000066DC, symSize: 0x34 }
  - { offsetInCU: 0xD9BD, offset: 0xD9BD, size: 0x8, addend: 0x0, symName: __ZNSt3__16vectorIP8HeapNodeIiENS_9allocatorIS3_EEE21_ConstructTransactionD1B7v160006Ev, symObjAddr: 0x58BC, symBinAddr: 0x100006710, symSize: 0x2C }
  - { offsetInCU: 0xD9E7, offset: 0xD9E7, size: 0x8, addend: 0x0, symName: __ZNSt3__16vectorIP8HeapNodeIiENS_9allocatorIS3_EEE21_ConstructTransactionC2B7v160006ERS6_m, symObjAddr: 0x58E8, symBinAddr: 0x10000673C, symSize: 0x44 }
  - { offsetInCU: 0xDA2F, offset: 0xDA2F, size: 0x8, addend: 0x0, symName: __ZNSt3__19allocatorIP8HeapNodeIiEE9constructB7v160006IS3_JRKS3_EEEvPT_DpOT0_, symObjAddr: 0x592C, symBinAddr: 0x100006780, symSize: 0x28 }
  - { offsetInCU: 0xDA85, offset: 0xDA85, size: 0x8, addend: 0x0, symName: __ZNSt3__16vectorIP8HeapNodeIiENS_9allocatorIS3_EEE21_ConstructTransactionD2B7v160006Ev, symObjAddr: 0x5954, symBinAddr: 0x1000067A8, symSize: 0x20 }
  - { offsetInCU: 0xDAAF, offset: 0xDAAF, size: 0x8, addend: 0x0, symName: __ZNSt3__128__exception_guard_exceptionsINS_6vectorIP8HeapNodeIiENS_9allocatorIS4_EEE16__destroy_vectorEED2B7v160006Ev, symObjAddr: 0x5974, symBinAddr: 0x1000067C8, symSize: 0x48 }
  - { offsetInCU: 0xDAD9, offset: 0xDAD9, size: 0x8, addend: 0x0, symName: __ZNSt3__16vectorIP8HeapNodeIiENS_9allocatorIS3_EEE16__destroy_vectorclB7v160006Ev, symObjAddr: 0x59BC, symBinAddr: 0x100006810, symSize: 0x9C }
  - { offsetInCU: 0xDAFF, offset: 0xDAFF, size: 0x8, addend: 0x0, symName: __ZNKSt3__16vectorIP8HeapNodeIiENS_9allocatorIS3_EEE17__annotate_deleteB7v160006Ev, symObjAddr: 0x5A58, symBinAddr: 0x1000068AC, symSize: 0xB8 }
  - { offsetInCU: 0xDB25, offset: 0xDB25, size: 0x8, addend: 0x0, symName: __ZNSt3__16vectorIP8HeapNodeIiENS_9allocatorIS3_EEE7__clearB7v160006Ev, symObjAddr: 0x5B20, symBinAddr: 0x100006974, symSize: 0x28 }
  - { offsetInCU: 0xDB4B, offset: 0xDB4B, size: 0x8, addend: 0x0, symName: __ZNSt3__116allocator_traitsINS_9allocatorIP8HeapNodeIiEEEE10deallocateB7v160006ERS5_PS4_m, symObjAddr: 0x5B48, symBinAddr: 0x10000699C, symSize: 0x34 }
  - { offsetInCU: 0xDB8D, offset: 0xDB8D, size: 0x8, addend: 0x0, symName: __ZNKSt3__16vectorIP8HeapNodeIiENS_9allocatorIS3_EEE4sizeB7v160006Ev, symObjAddr: 0x5B7C, symBinAddr: 0x1000069D0, symSize: 0x28 }
  - { offsetInCU: 0xDBB3, offset: 0xDBB3, size: 0x8, addend: 0x0, symName: __ZNSt3__16vectorIP8HeapNodeIiENS_9allocatorIS3_EEE22__base_destruct_at_endB7v160006EPS3_, symObjAddr: 0x5BA4, symBinAddr: 0x1000069F8, symSize: 0xA0 }
  - { offsetInCU: 0xDBF7, offset: 0xDBF7, size: 0x8, addend: 0x0, symName: __ZNSt3__116allocator_traitsINS_9allocatorIP8HeapNodeIiEEEE7destroyB7v160006IS4_vEEvRS5_PT_, symObjAddr: 0x5C44, symBinAddr: 0x100006A98, symSize: 0x2C }
  - { offsetInCU: 0xDC34, offset: 0xDC34, size: 0x8, addend: 0x0, symName: __ZNSt3__19allocatorIP8HeapNodeIiEE7destroyB7v160006EPS3_, symObjAddr: 0x5C70, symBinAddr: 0x100006AC4, symSize: 0x14 }
  - { offsetInCU: 0xDC68, offset: 0xDC68, size: 0x8, addend: 0x0, symName: __ZNSt3__19allocatorIP8HeapNodeIiEE10deallocateB7v160006EPS3_m, symObjAddr: 0x5C84, symBinAddr: 0x100006AD8, symSize: 0x70 }
  - { offsetInCU: 0xDCAA, offset: 0xDCAA, size: 0x8, addend: 0x0, symName: __ZN20CircularDynamicArrayIP8HeapNodeIiEE8addFrontES2_, symObjAddr: 0x5CF4, symBinAddr: 0x100006B48, symSize: 0xB8 }
  - { offsetInCU: 0xDCDE, offset: 0xDCDE, size: 0x8, addend: 0x0, symName: __ZN20CircularDynamicArrayIP8HeapNodeIiEE6lengthEv, symObjAddr: 0x5DAC, symBinAddr: 0x100006C00, symSize: 0x18 }
  - { offsetInCU: 0xDD04, offset: 0xDD04, size: 0x8, addend: 0x0, symName: __ZN20CircularDynamicArrayIP8HeapNodeIiEEixEi, symObjAddr: 0x5DC4, symBinAddr: 0x100006C18, symSize: 0x118 }
  - { offsetInCU: 0xDD38, offset: 0xDD38, size: 0x8, addend: 0x0, symName: __ZN20CircularDynamicArrayIP8HeapNodeIiEE12increaseSizeEv, symObjAddr: 0x5EDC, symBinAddr: 0x100006D30, symSize: 0x108 }
  - { offsetInCU: 0xDD97, offset: 0xDD97, size: 0x8, addend: 0x0, symName: __ZNSt3__16vectorIP8HeapNodeIiENS_9allocatorIS3_EEED2B7v160006Ev, symObjAddr: 0x5FE4, symBinAddr: 0x100006E38, symSize: 0x3C }
  - { offsetInCU: 0xDDC1, offset: 0xDDC1, size: 0x8, addend: 0x0, symName: __ZN8HeapNodeIiED2Ev, symObjAddr: 0x6020, symBinAddr: 0x100006E74, symSize: 0x38 }
  - { offsetInCU: 0xDDEB, offset: 0xDDEB, size: 0x8, addend: 0x0, symName: __ZN20CircularDynamicArrayIP8HeapNodeIiEED1Ev, symObjAddr: 0x6058, symBinAddr: 0x100006EAC, symSize: 0x2C }
  - { offsetInCU: 0xDE15, offset: 0xDE15, size: 0x8, addend: 0x0, symName: __ZN20CircularDynamicArrayIP8HeapNodeIiEED2Ev, symObjAddr: 0x6084, symBinAddr: 0x100006ED8, symSize: 0x50 }
  - { offsetInCU: 0xDE3F, offset: 0xDE3F, size: 0x8, addend: 0x0, symName: __ZN5BHeapIiE14printKeyHelperEP8HeapNodeIiE, symObjAddr: 0x60D4, symBinAddr: 0x100006F28, symSize: 0xF0 }
  - { offsetInCU: 0xDE9E, offset: 0xDE9E, size: 0x8, addend: 0x0, symName: __ZN8HeapNodeIiE11getChildrenEv, symObjAddr: 0x61C4, symBinAddr: 0x100007018, symSize: 0x3C }
  - { offsetInCU: 0xDEC4, offset: 0xDEC4, size: 0x8, addend: 0x0, symName: __ZN20CircularDynamicArrayIP8HeapNodeIiEEC1ERKS3_, symObjAddr: 0x6200, symBinAddr: 0x100007054, symSize: 0x34 }
  - { offsetInCU: 0xDEFC, offset: 0xDEFC, size: 0x8, addend: 0x0, symName: __ZN20CircularDynamicArrayIP8HeapNodeIiEEC2ERKS3_, symObjAddr: 0x6234, symBinAddr: 0x100007088, symSize: 0x134 }
...
